
BLE_WB55_vid12_FromScratch.elf:     file format elf32-littlearm

Sections:
Idx Name          Size      VMA       LMA       File off  Algn
  0 .isr_vector   0000013c  08000000  08000000  00010000  2**0
                  CONTENTS, ALLOC, LOAD, READONLY, DATA
  1 .text         0000575c  08000140  08000140  00010140  2**4
                  CONTENTS, ALLOC, LOAD, READONLY, CODE
  2 .rodata       000032d8  0800589c  0800589c  0001589c  2**2
                  CONTENTS, ALLOC, LOAD, READONLY, DATA
  3 .ARM          00000008  08008b74  08008b74  00018b74  2**2
                  CONTENTS, ALLOC, LOAD, READONLY, DATA
  4 .init_array   00000004  08008b7c  08008b7c  00018b7c  2**2
                  CONTENTS, ALLOC, LOAD, DATA
  5 .fini_array   00000004  08008b80  08008b80  00018b80  2**2
                  CONTENTS, ALLOC, LOAD, DATA
  6 .data         000000a0  20000004  08008b84  00020004  2**2
                  CONTENTS, ALLOC, LOAD, DATA
  7 TIMERSERVER_CONTEXT 00000099  200000a4  08008c24  000200a4  2**2
                  CONTENTS, ALLOC, LOAD, DATA
  8 BLE_DRIVER_CONTEXT 00000038  20000140  08008cbd  00020140  2**2
                  CONTENTS, ALLOC, LOAD, DATA
  9 SYSTEM_DRIVER_CONTEXT 00000011  20000178  08008cf5  00020178  2**2
                  CONTENTS, ALLOC, LOAD, DATA
 10 BLE_APP_CONTEXT 00000084  2000018c  08008d06  0002018c  2**2
                  CONTENTS, ALLOC, LOAD, DATA
 11 .bss          000007e0  20000210  08008d8a  00020210  2**2
                  ALLOC
 12 ._user_heap_stack 00000600  200009f0  08008d8a  000209f0  2**0
                  ALLOC
 13 .ARM.attributes 00000030  00000000  00000000  00020210  2**0
                  CONTENTS, READONLY
 14 MAPPING_TABLE 00000028  20030000  20030000  00030000  2**2
                  ALLOC
 15 MB_MEM1       000001b7  20030028  20030028  00030000  2**2
                  ALLOC
 16 MB_MEM2       00000877  200301e0  200301e0  00030000  2**2
                  ALLOC
 17 .comment      00000050  00000000  00000000  00020240  2**0
                  CONTENTS, READONLY
 18 .debug_frame  0000062c  00000000  00000000  00020290  2**2
                  CONTENTS, READONLY, DEBUGGING, OCTETS

Disassembly of section .text:

08000140 <__do_global_dtors_aux>:
 8000140:	b510      	push	{r4, lr}
 8000142:	4c05      	ldr	r4, [pc, #20]	; (8000158 <__do_global_dtors_aux+0x18>)
 8000144:	7823      	ldrb	r3, [r4, #0]
 8000146:	b933      	cbnz	r3, 8000156 <__do_global_dtors_aux+0x16>
 8000148:	4b04      	ldr	r3, [pc, #16]	; (800015c <__do_global_dtors_aux+0x1c>)
 800014a:	b113      	cbz	r3, 8000152 <__do_global_dtors_aux+0x12>
 800014c:	4804      	ldr	r0, [pc, #16]	; (8000160 <__do_global_dtors_aux+0x20>)
 800014e:	f3af 8000 	nop.w
 8000152:	2301      	movs	r3, #1
 8000154:	7023      	strb	r3, [r4, #0]
 8000156:	bd10      	pop	{r4, pc}
 8000158:	20000210 	.word	0x20000210
 800015c:	00000000 	.word	0x00000000
 8000160:	08005884 	.word	0x08005884

08000164 <frame_dummy>:
 8000164:	b508      	push	{r3, lr}
 8000166:	4b03      	ldr	r3, [pc, #12]	; (8000174 <frame_dummy+0x10>)
 8000168:	b11b      	cbz	r3, 8000172 <frame_dummy+0xe>
 800016a:	4903      	ldr	r1, [pc, #12]	; (8000178 <frame_dummy+0x14>)
 800016c:	4803      	ldr	r0, [pc, #12]	; (800017c <frame_dummy+0x18>)
 800016e:	f3af 8000 	nop.w
 8000172:	bd08      	pop	{r3, pc}
 8000174:	00000000 	.word	0x00000000
 8000178:	20000214 	.word	0x20000214
 800017c:	08005884 	.word	0x08005884

08000180 <strlen>:
 8000180:	4603      	mov	r3, r0
 8000182:	f813 2b01 	ldrb.w	r2, [r3], #1
 8000186:	2a00      	cmp	r2, #0
 8000188:	d1fb      	bne.n	8000182 <strlen+0x2>
 800018a:	1a18      	subs	r0, r3, r0
 800018c:	3801      	subs	r0, #1
 800018e:	4770      	bx	lr

08000190 <memchr>:
 8000190:	f001 01ff 	and.w	r1, r1, #255	; 0xff
 8000194:	2a10      	cmp	r2, #16
 8000196:	db2b      	blt.n	80001f0 <memchr+0x60>
 8000198:	f010 0f07 	tst.w	r0, #7
 800019c:	d008      	beq.n	80001b0 <memchr+0x20>
 800019e:	f810 3b01 	ldrb.w	r3, [r0], #1
 80001a2:	3a01      	subs	r2, #1
 80001a4:	428b      	cmp	r3, r1
 80001a6:	d02d      	beq.n	8000204 <memchr+0x74>
 80001a8:	f010 0f07 	tst.w	r0, #7
 80001ac:	b342      	cbz	r2, 8000200 <memchr+0x70>
 80001ae:	d1f6      	bne.n	800019e <memchr+0xe>
 80001b0:	b4f0      	push	{r4, r5, r6, r7}
 80001b2:	ea41 2101 	orr.w	r1, r1, r1, lsl #8
 80001b6:	ea41 4101 	orr.w	r1, r1, r1, lsl #16
 80001ba:	f022 0407 	bic.w	r4, r2, #7
 80001be:	f07f 0700 	mvns.w	r7, #0
 80001c2:	2300      	movs	r3, #0
 80001c4:	e8f0 5602 	ldrd	r5, r6, [r0], #8
 80001c8:	3c08      	subs	r4, #8
 80001ca:	ea85 0501 	eor.w	r5, r5, r1
 80001ce:	ea86 0601 	eor.w	r6, r6, r1
 80001d2:	fa85 f547 	uadd8	r5, r5, r7
 80001d6:	faa3 f587 	sel	r5, r3, r7
 80001da:	fa86 f647 	uadd8	r6, r6, r7
 80001de:	faa5 f687 	sel	r6, r5, r7
 80001e2:	b98e      	cbnz	r6, 8000208 <memchr+0x78>
 80001e4:	d1ee      	bne.n	80001c4 <memchr+0x34>
 80001e6:	bcf0      	pop	{r4, r5, r6, r7}
 80001e8:	f001 01ff 	and.w	r1, r1, #255	; 0xff
 80001ec:	f002 0207 	and.w	r2, r2, #7
 80001f0:	b132      	cbz	r2, 8000200 <memchr+0x70>
 80001f2:	f810 3b01 	ldrb.w	r3, [r0], #1
 80001f6:	3a01      	subs	r2, #1
 80001f8:	ea83 0301 	eor.w	r3, r3, r1
 80001fc:	b113      	cbz	r3, 8000204 <memchr+0x74>
 80001fe:	d1f8      	bne.n	80001f2 <memchr+0x62>
 8000200:	2000      	movs	r0, #0
 8000202:	4770      	bx	lr
 8000204:	3801      	subs	r0, #1
 8000206:	4770      	bx	lr
 8000208:	2d00      	cmp	r5, #0
 800020a:	bf06      	itte	eq
 800020c:	4635      	moveq	r5, r6
 800020e:	3803      	subeq	r0, #3
 8000210:	3807      	subne	r0, #7
 8000212:	f015 0f01 	tst.w	r5, #1
 8000216:	d107      	bne.n	8000228 <memchr+0x98>
 8000218:	3001      	adds	r0, #1
 800021a:	f415 7f80 	tst.w	r5, #256	; 0x100
 800021e:	bf02      	ittt	eq
 8000220:	3001      	addeq	r0, #1
 8000222:	f415 3fc0 	tsteq.w	r5, #98304	; 0x18000
 8000226:	3001      	addeq	r0, #1
 8000228:	bcf0      	pop	{r4, r5, r6, r7}
 800022a:	3801      	subs	r0, #1
 800022c:	4770      	bx	lr
 800022e:	bf00      	nop

08000230 <__aeabi_uldivmod>:
 8000230:	b953      	cbnz	r3, 8000248 <__aeabi_uldivmod+0x18>
 8000232:	b94a      	cbnz	r2, 8000248 <__aeabi_uldivmod+0x18>
 8000234:	2900      	cmp	r1, #0
 8000236:	bf08      	it	eq
 8000238:	2800      	cmpeq	r0, #0
 800023a:	bf1c      	itt	ne
 800023c:	f04f 31ff 	movne.w	r1, #4294967295
 8000240:	f04f 30ff 	movne.w	r0, #4294967295
 8000244:	f000 b974 	b.w	8000530 <__aeabi_idiv0>
 8000248:	f1ad 0c08 	sub.w	ip, sp, #8
 800024c:	e96d ce04 	strd	ip, lr, [sp, #-16]!
 8000250:	f000 f806 	bl	8000260 <__udivmoddi4>
 8000254:	f8dd e004 	ldr.w	lr, [sp, #4]
 8000258:	e9dd 2302 	ldrd	r2, r3, [sp, #8]
 800025c:	b004      	add	sp, #16
 800025e:	4770      	bx	lr

08000260 <__udivmoddi4>:
 8000260:	e92d 47f0 	stmdb	sp!, {r4, r5, r6, r7, r8, r9, sl, lr}
 8000264:	9d08      	ldr	r5, [sp, #32]
 8000266:	4604      	mov	r4, r0
 8000268:	468e      	mov	lr, r1
 800026a:	2b00      	cmp	r3, #0
 800026c:	d14d      	bne.n	800030a <__udivmoddi4+0xaa>
 800026e:	428a      	cmp	r2, r1
 8000270:	4694      	mov	ip, r2
 8000272:	d969      	bls.n	8000348 <__udivmoddi4+0xe8>
 8000274:	fab2 f282 	clz	r2, r2
 8000278:	b152      	cbz	r2, 8000290 <__udivmoddi4+0x30>
 800027a:	fa01 f302 	lsl.w	r3, r1, r2
 800027e:	f1c2 0120 	rsb	r1, r2, #32
 8000282:	fa20 f101 	lsr.w	r1, r0, r1
 8000286:	fa0c fc02 	lsl.w	ip, ip, r2
 800028a:	ea41 0e03 	orr.w	lr, r1, r3
 800028e:	4094      	lsls	r4, r2
 8000290:	ea4f 481c 	mov.w	r8, ip, lsr #16
 8000294:	0c21      	lsrs	r1, r4, #16
 8000296:	fbbe f6f8 	udiv	r6, lr, r8
 800029a:	fa1f f78c 	uxth.w	r7, ip
 800029e:	fb08 e316 	mls	r3, r8, r6, lr
 80002a2:	ea41 4303 	orr.w	r3, r1, r3, lsl #16
 80002a6:	fb06 f107 	mul.w	r1, r6, r7
 80002aa:	4299      	cmp	r1, r3
 80002ac:	d90a      	bls.n	80002c4 <__udivmoddi4+0x64>
 80002ae:	eb1c 0303 	adds.w	r3, ip, r3
 80002b2:	f106 30ff 	add.w	r0, r6, #4294967295
 80002b6:	f080 811f 	bcs.w	80004f8 <__udivmoddi4+0x298>
 80002ba:	4299      	cmp	r1, r3
 80002bc:	f240 811c 	bls.w	80004f8 <__udivmoddi4+0x298>
 80002c0:	3e02      	subs	r6, #2
 80002c2:	4463      	add	r3, ip
 80002c4:	1a5b      	subs	r3, r3, r1
 80002c6:	b2a4      	uxth	r4, r4
 80002c8:	fbb3 f0f8 	udiv	r0, r3, r8
 80002cc:	fb08 3310 	mls	r3, r8, r0, r3
 80002d0:	ea44 4403 	orr.w	r4, r4, r3, lsl #16
 80002d4:	fb00 f707 	mul.w	r7, r0, r7
 80002d8:	42a7      	cmp	r7, r4
 80002da:	d90a      	bls.n	80002f2 <__udivmoddi4+0x92>
 80002dc:	eb1c 0404 	adds.w	r4, ip, r4
 80002e0:	f100 33ff 	add.w	r3, r0, #4294967295
 80002e4:	f080 810a 	bcs.w	80004fc <__udivmoddi4+0x29c>
 80002e8:	42a7      	cmp	r7, r4
 80002ea:	f240 8107 	bls.w	80004fc <__udivmoddi4+0x29c>
 80002ee:	4464      	add	r4, ip
 80002f0:	3802      	subs	r0, #2
 80002f2:	ea40 4006 	orr.w	r0, r0, r6, lsl #16
 80002f6:	1be4      	subs	r4, r4, r7
 80002f8:	2600      	movs	r6, #0
 80002fa:	b11d      	cbz	r5, 8000304 <__udivmoddi4+0xa4>
 80002fc:	40d4      	lsrs	r4, r2
 80002fe:	2300      	movs	r3, #0
 8000300:	e9c5 4300 	strd	r4, r3, [r5]
 8000304:	4631      	mov	r1, r6
 8000306:	e8bd 87f0 	ldmia.w	sp!, {r4, r5, r6, r7, r8, r9, sl, pc}
 800030a:	428b      	cmp	r3, r1
 800030c:	d909      	bls.n	8000322 <__udivmoddi4+0xc2>
 800030e:	2d00      	cmp	r5, #0
 8000310:	f000 80ef 	beq.w	80004f2 <__udivmoddi4+0x292>
 8000314:	2600      	movs	r6, #0
 8000316:	e9c5 0100 	strd	r0, r1, [r5]
 800031a:	4630      	mov	r0, r6
 800031c:	4631      	mov	r1, r6
 800031e:	e8bd 87f0 	ldmia.w	sp!, {r4, r5, r6, r7, r8, r9, sl, pc}
 8000322:	fab3 f683 	clz	r6, r3
 8000326:	2e00      	cmp	r6, #0
 8000328:	d14a      	bne.n	80003c0 <__udivmoddi4+0x160>
 800032a:	428b      	cmp	r3, r1
 800032c:	d302      	bcc.n	8000334 <__udivmoddi4+0xd4>
 800032e:	4282      	cmp	r2, r0
 8000330:	f200 80f9 	bhi.w	8000526 <__udivmoddi4+0x2c6>
 8000334:	1a84      	subs	r4, r0, r2
 8000336:	eb61 0303 	sbc.w	r3, r1, r3
 800033a:	2001      	movs	r0, #1
 800033c:	469e      	mov	lr, r3
 800033e:	2d00      	cmp	r5, #0
 8000340:	d0e0      	beq.n	8000304 <__udivmoddi4+0xa4>
 8000342:	e9c5 4e00 	strd	r4, lr, [r5]
 8000346:	e7dd      	b.n	8000304 <__udivmoddi4+0xa4>
 8000348:	b902      	cbnz	r2, 800034c <__udivmoddi4+0xec>
 800034a:	deff      	udf	#255	; 0xff
 800034c:	fab2 f282 	clz	r2, r2
 8000350:	2a00      	cmp	r2, #0
 8000352:	f040 8092 	bne.w	800047a <__udivmoddi4+0x21a>
 8000356:	eba1 010c 	sub.w	r1, r1, ip
 800035a:	ea4f 471c 	mov.w	r7, ip, lsr #16
 800035e:	fa1f fe8c 	uxth.w	lr, ip
 8000362:	2601      	movs	r6, #1
 8000364:	0c20      	lsrs	r0, r4, #16
 8000366:	fbb1 f3f7 	udiv	r3, r1, r7
 800036a:	fb07 1113 	mls	r1, r7, r3, r1
 800036e:	ea40 4101 	orr.w	r1, r0, r1, lsl #16
 8000372:	fb0e f003 	mul.w	r0, lr, r3
 8000376:	4288      	cmp	r0, r1
 8000378:	d908      	bls.n	800038c <__udivmoddi4+0x12c>
 800037a:	eb1c 0101 	adds.w	r1, ip, r1
 800037e:	f103 38ff 	add.w	r8, r3, #4294967295
 8000382:	d202      	bcs.n	800038a <__udivmoddi4+0x12a>
 8000384:	4288      	cmp	r0, r1
 8000386:	f200 80cb 	bhi.w	8000520 <__udivmoddi4+0x2c0>
 800038a:	4643      	mov	r3, r8
 800038c:	1a09      	subs	r1, r1, r0
 800038e:	b2a4      	uxth	r4, r4
 8000390:	fbb1 f0f7 	udiv	r0, r1, r7
 8000394:	fb07 1110 	mls	r1, r7, r0, r1
 8000398:	ea44 4401 	orr.w	r4, r4, r1, lsl #16
 800039c:	fb0e fe00 	mul.w	lr, lr, r0
 80003a0:	45a6      	cmp	lr, r4
 80003a2:	d908      	bls.n	80003b6 <__udivmoddi4+0x156>
 80003a4:	eb1c 0404 	adds.w	r4, ip, r4
 80003a8:	f100 31ff 	add.w	r1, r0, #4294967295
 80003ac:	d202      	bcs.n	80003b4 <__udivmoddi4+0x154>
 80003ae:	45a6      	cmp	lr, r4
 80003b0:	f200 80bb 	bhi.w	800052a <__udivmoddi4+0x2ca>
 80003b4:	4608      	mov	r0, r1
 80003b6:	eba4 040e 	sub.w	r4, r4, lr
 80003ba:	ea40 4003 	orr.w	r0, r0, r3, lsl #16
 80003be:	e79c      	b.n	80002fa <__udivmoddi4+0x9a>
 80003c0:	f1c6 0720 	rsb	r7, r6, #32
 80003c4:	40b3      	lsls	r3, r6
 80003c6:	fa22 fc07 	lsr.w	ip, r2, r7
 80003ca:	ea4c 0c03 	orr.w	ip, ip, r3
 80003ce:	fa20 f407 	lsr.w	r4, r0, r7
 80003d2:	fa01 f306 	lsl.w	r3, r1, r6
 80003d6:	431c      	orrs	r4, r3
 80003d8:	40f9      	lsrs	r1, r7
 80003da:	ea4f 491c 	mov.w	r9, ip, lsr #16
 80003de:	fa00 f306 	lsl.w	r3, r0, r6
 80003e2:	fbb1 f8f9 	udiv	r8, r1, r9
 80003e6:	0c20      	lsrs	r0, r4, #16
 80003e8:	fa1f fe8c 	uxth.w	lr, ip
 80003ec:	fb09 1118 	mls	r1, r9, r8, r1
 80003f0:	ea40 4101 	orr.w	r1, r0, r1, lsl #16
 80003f4:	fb08 f00e 	mul.w	r0, r8, lr
 80003f8:	4288      	cmp	r0, r1
 80003fa:	fa02 f206 	lsl.w	r2, r2, r6
 80003fe:	d90b      	bls.n	8000418 <__udivmoddi4+0x1b8>
 8000400:	eb1c 0101 	adds.w	r1, ip, r1
 8000404:	f108 3aff 	add.w	sl, r8, #4294967295
 8000408:	f080 8088 	bcs.w	800051c <__udivmoddi4+0x2bc>
 800040c:	4288      	cmp	r0, r1
 800040e:	f240 8085 	bls.w	800051c <__udivmoddi4+0x2bc>
 8000412:	f1a8 0802 	sub.w	r8, r8, #2
 8000416:	4461      	add	r1, ip
 8000418:	1a09      	subs	r1, r1, r0
 800041a:	b2a4      	uxth	r4, r4
 800041c:	fbb1 f0f9 	udiv	r0, r1, r9
 8000420:	fb09 1110 	mls	r1, r9, r0, r1
 8000424:	ea44 4101 	orr.w	r1, r4, r1, lsl #16
 8000428:	fb00 fe0e 	mul.w	lr, r0, lr
 800042c:	458e      	cmp	lr, r1
 800042e:	d908      	bls.n	8000442 <__udivmoddi4+0x1e2>
 8000430:	eb1c 0101 	adds.w	r1, ip, r1
 8000434:	f100 34ff 	add.w	r4, r0, #4294967295
 8000438:	d26c      	bcs.n	8000514 <__udivmoddi4+0x2b4>
 800043a:	458e      	cmp	lr, r1
 800043c:	d96a      	bls.n	8000514 <__udivmoddi4+0x2b4>
 800043e:	3802      	subs	r0, #2
 8000440:	4461      	add	r1, ip
 8000442:	ea40 4008 	orr.w	r0, r0, r8, lsl #16
 8000446:	fba0 9402 	umull	r9, r4, r0, r2
 800044a:	eba1 010e 	sub.w	r1, r1, lr
 800044e:	42a1      	cmp	r1, r4
 8000450:	46c8      	mov	r8, r9
 8000452:	46a6      	mov	lr, r4
 8000454:	d356      	bcc.n	8000504 <__udivmoddi4+0x2a4>
 8000456:	d053      	beq.n	8000500 <__udivmoddi4+0x2a0>
 8000458:	b15d      	cbz	r5, 8000472 <__udivmoddi4+0x212>
 800045a:	ebb3 0208 	subs.w	r2, r3, r8
 800045e:	eb61 010e 	sbc.w	r1, r1, lr
 8000462:	fa01 f707 	lsl.w	r7, r1, r7
 8000466:	fa22 f306 	lsr.w	r3, r2, r6
 800046a:	40f1      	lsrs	r1, r6
 800046c:	431f      	orrs	r7, r3
 800046e:	e9c5 7100 	strd	r7, r1, [r5]
 8000472:	2600      	movs	r6, #0
 8000474:	4631      	mov	r1, r6
 8000476:	e8bd 87f0 	ldmia.w	sp!, {r4, r5, r6, r7, r8, r9, sl, pc}
 800047a:	f1c2 0320 	rsb	r3, r2, #32
 800047e:	40d8      	lsrs	r0, r3
 8000480:	fa0c fc02 	lsl.w	ip, ip, r2
 8000484:	fa21 f303 	lsr.w	r3, r1, r3
 8000488:	4091      	lsls	r1, r2
 800048a:	4301      	orrs	r1, r0
 800048c:	ea4f 471c 	mov.w	r7, ip, lsr #16
 8000490:	fa1f fe8c 	uxth.w	lr, ip
 8000494:	fbb3 f0f7 	udiv	r0, r3, r7
 8000498:	fb07 3610 	mls	r6, r7, r0, r3
 800049c:	0c0b      	lsrs	r3, r1, #16
 800049e:	ea43 4306 	orr.w	r3, r3, r6, lsl #16
 80004a2:	fb00 f60e 	mul.w	r6, r0, lr
 80004a6:	429e      	cmp	r6, r3
 80004a8:	fa04 f402 	lsl.w	r4, r4, r2
 80004ac:	d908      	bls.n	80004c0 <__udivmoddi4+0x260>
 80004ae:	eb1c 0303 	adds.w	r3, ip, r3
 80004b2:	f100 38ff 	add.w	r8, r0, #4294967295
 80004b6:	d22f      	bcs.n	8000518 <__udivmoddi4+0x2b8>
 80004b8:	429e      	cmp	r6, r3
 80004ba:	d92d      	bls.n	8000518 <__udivmoddi4+0x2b8>
 80004bc:	3802      	subs	r0, #2
 80004be:	4463      	add	r3, ip
 80004c0:	1b9b      	subs	r3, r3, r6
 80004c2:	b289      	uxth	r1, r1
 80004c4:	fbb3 f6f7 	udiv	r6, r3, r7
 80004c8:	fb07 3316 	mls	r3, r7, r6, r3
 80004cc:	ea41 4103 	orr.w	r1, r1, r3, lsl #16
 80004d0:	fb06 f30e 	mul.w	r3, r6, lr
 80004d4:	428b      	cmp	r3, r1
 80004d6:	d908      	bls.n	80004ea <__udivmoddi4+0x28a>
 80004d8:	eb1c 0101 	adds.w	r1, ip, r1
 80004dc:	f106 38ff 	add.w	r8, r6, #4294967295
 80004e0:	d216      	bcs.n	8000510 <__udivmoddi4+0x2b0>
 80004e2:	428b      	cmp	r3, r1
 80004e4:	d914      	bls.n	8000510 <__udivmoddi4+0x2b0>
 80004e6:	3e02      	subs	r6, #2
 80004e8:	4461      	add	r1, ip
 80004ea:	1ac9      	subs	r1, r1, r3
 80004ec:	ea46 4600 	orr.w	r6, r6, r0, lsl #16
 80004f0:	e738      	b.n	8000364 <__udivmoddi4+0x104>
 80004f2:	462e      	mov	r6, r5
 80004f4:	4628      	mov	r0, r5
 80004f6:	e705      	b.n	8000304 <__udivmoddi4+0xa4>
 80004f8:	4606      	mov	r6, r0
 80004fa:	e6e3      	b.n	80002c4 <__udivmoddi4+0x64>
 80004fc:	4618      	mov	r0, r3
 80004fe:	e6f8      	b.n	80002f2 <__udivmoddi4+0x92>
 8000500:	454b      	cmp	r3, r9
 8000502:	d2a9      	bcs.n	8000458 <__udivmoddi4+0x1f8>
 8000504:	ebb9 0802 	subs.w	r8, r9, r2
 8000508:	eb64 0e0c 	sbc.w	lr, r4, ip
 800050c:	3801      	subs	r0, #1
 800050e:	e7a3      	b.n	8000458 <__udivmoddi4+0x1f8>
 8000510:	4646      	mov	r6, r8
 8000512:	e7ea      	b.n	80004ea <__udivmoddi4+0x28a>
 8000514:	4620      	mov	r0, r4
 8000516:	e794      	b.n	8000442 <__udivmoddi4+0x1e2>
 8000518:	4640      	mov	r0, r8
 800051a:	e7d1      	b.n	80004c0 <__udivmoddi4+0x260>
 800051c:	46d0      	mov	r8, sl
 800051e:	e77b      	b.n	8000418 <__udivmoddi4+0x1b8>
 8000520:	3b02      	subs	r3, #2
 8000522:	4461      	add	r1, ip
 8000524:	e732      	b.n	800038c <__udivmoddi4+0x12c>
 8000526:	4630      	mov	r0, r6
 8000528:	e709      	b.n	800033e <__udivmoddi4+0xde>
 800052a:	4464      	add	r4, ip
 800052c:	3802      	subs	r0, #2
 800052e:	e742      	b.n	80003b6 <__udivmoddi4+0x156>

08000530 <__aeabi_idiv0>:
 8000530:	4770      	bx	lr
 8000532:	bf00      	nop

08000534 <drawBitmap>:
 8000534:	e92d 4ff0 	stmdb	sp!, {r4, r5, r6, r7, r8, r9, sl, fp, lr}
 8000538:	b089      	sub	sp, #36	; 0x24
 800053a:	461d      	mov	r5, r3
 800053c:	f89d 9050 	ldrb.w	r9, [sp, #80]	; 0x50
 8000540:	f9bd 3048 	ldrsh.w	r3, [sp, #72]	; 0x48
 8000544:	f8bd 804c 	ldrh.w	r8, [sp, #76]	; 0x4c
 8000548:	9305      	str	r3, [sp, #20]
 800054a:	e9cd 0102 	strd	r0, r1, [sp, #8]
 800054e:	4648      	mov	r0, r9
 8000550:	9204      	str	r2, [sp, #16]
 8000552:	f000 fec7 	bl	80012e4 <ssd1306_Fill>
 8000556:	1deb      	adds	r3, r5, #7
 8000558:	bf48      	it	mi
 800055a:	f105 030e 	addmi.w	r3, r5, #14
 800055e:	10db      	asrs	r3, r3, #3
 8000560:	f04f 0a00 	mov.w	sl, #0
 8000564:	9300      	str	r3, [sp, #0]
 8000566:	4657      	mov	r7, sl
 8000568:	fa5f f888 	uxtb.w	r8, r8
 800056c:	9b05      	ldr	r3, [sp, #20]
 800056e:	b23a      	sxth	r2, r7
 8000570:	4293      	cmp	r3, r2
 8000572:	dd2e      	ble.n	80005d2 <drawBitmap+0x9e>
 8000574:	9b04      	ldr	r3, [sp, #16]
 8000576:	4453      	add	r3, sl
 8000578:	9306      	str	r3, [sp, #24]
 800057a:	9b03      	ldr	r3, [sp, #12]
 800057c:	19d9      	adds	r1, r3, r7
 800057e:	2400      	movs	r4, #0
 8000580:	b2c9      	uxtb	r1, r1
 8000582:	e020      	b.n	80005c6 <drawBitmap+0x92>
 8000584:	2c00      	cmp	r4, #0
 8000586:	4622      	mov	r2, r4
 8000588:	bfb8      	it	lt
 800058a:	1de2      	addlt	r2, r4, #7
 800058c:	9b06      	ldr	r3, [sp, #24]
 800058e:	f342 02cf 	sbfx	r2, r2, #3, #16
 8000592:	2600      	movs	r6, #0
 8000594:	5c9b      	ldrb	r3, [r3, r2]
 8000596:	9301      	str	r3, [sp, #4]
 8000598:	9b02      	ldr	r3, [sp, #8]
 800059a:	eb04 0b03 	add.w	fp, r4, r3
 800059e:	2380      	movs	r3, #128	; 0x80
 80005a0:	fa43 f206 	asr.w	r2, r3, r6
 80005a4:	9b01      	ldr	r3, [sp, #4]
 80005a6:	9107      	str	r1, [sp, #28]
 80005a8:	421a      	tst	r2, r3
 80005aa:	eb0b 0006 	add.w	r0, fp, r6
 80005ae:	bf0c      	ite	eq
 80005b0:	464a      	moveq	r2, r9
 80005b2:	4642      	movne	r2, r8
 80005b4:	b2c0      	uxtb	r0, r0
 80005b6:	3601      	adds	r6, #1
 80005b8:	f000 febe 	bl	8001338 <ssd1306_DrawPixel>
 80005bc:	2e08      	cmp	r6, #8
 80005be:	9907      	ldr	r1, [sp, #28]
 80005c0:	d1ed      	bne.n	800059e <drawBitmap+0x6a>
 80005c2:	3408      	adds	r4, #8
 80005c4:	b224      	sxth	r4, r4
 80005c6:	42ac      	cmp	r4, r5
 80005c8:	dbdc      	blt.n	8000584 <drawBitmap+0x50>
 80005ca:	9b00      	ldr	r3, [sp, #0]
 80005cc:	3701      	adds	r7, #1
 80005ce:	449a      	add	sl, r3
 80005d0:	e7cc      	b.n	800056c <drawBitmap+0x38>
 80005d2:	b009      	add	sp, #36	; 0x24
 80005d4:	e8bd 4ff0 	ldmia.w	sp!, {r4, r5, r6, r7, r8, r9, sl, fp, lr}
 80005d8:	f000 be94 	b.w	8001304 <ssd1306_UpdateScreen>

080005dc <writeLargeFont>:
 80005dc:	b538      	push	{r3, r4, r5, lr}
 80005de:	b2c9      	uxtb	r1, r1
 80005e0:	b2c0      	uxtb	r0, r0
 80005e2:	4615      	mov	r5, r2
 80005e4:	461c      	mov	r4, r3
 80005e6:	f000 ff37 	bl	8001458 <ssd1306_SetCursor>
 80005ea:	4a05      	ldr	r2, [pc, #20]	; (8000600 <writeLargeFont+0x24>)
 80005ec:	b2eb      	uxtb	r3, r5
 80005ee:	4620      	mov	r0, r4
 80005f0:	ca06      	ldmia	r2, {r1, r2}
 80005f2:	f000 ff1b 	bl	800142c <ssd1306_WriteString>
 80005f6:	e8bd 4038 	ldmia.w	sp!, {r3, r4, r5, lr}
 80005fa:	f000 be83 	b.w	8001304 <ssd1306_UpdateScreen>
 80005fe:	bf00      	nop
 8000600:	2000000c 	.word	0x2000000c

08000604 <writeMedFont>:
 8000604:	b538      	push	{r3, r4, r5, lr}
 8000606:	b2c9      	uxtb	r1, r1
 8000608:	b2c0      	uxtb	r0, r0
 800060a:	4615      	mov	r5, r2
 800060c:	461c      	mov	r4, r3
 800060e:	f000 ff23 	bl	8001458 <ssd1306_SetCursor>
 8000612:	4a05      	ldr	r2, [pc, #20]	; (8000628 <writeMedFont+0x24>)
 8000614:	b2eb      	uxtb	r3, r5
 8000616:	4620      	mov	r0, r4
 8000618:	ca06      	ldmia	r2, {r1, r2}
 800061a:	f000 ff07 	bl	800142c <ssd1306_WriteString>
 800061e:	e8bd 4038 	ldmia.w	sp!, {r3, r4, r5, lr}
 8000622:	f000 be6f 	b.w	8001304 <ssd1306_UpdateScreen>
 8000626:	bf00      	nop
 8000628:	20000004 	.word	0x20000004

0800062c <writeSmFont>:
 800062c:	b538      	push	{r3, r4, r5, lr}
 800062e:	b2c9      	uxtb	r1, r1
 8000630:	b2c0      	uxtb	r0, r0
 8000632:	4615      	mov	r5, r2
 8000634:	461c      	mov	r4, r3
 8000636:	f000 ff0f 	bl	8001458 <ssd1306_SetCursor>
 800063a:	4a05      	ldr	r2, [pc, #20]	; (8000650 <writeSmFont+0x24>)
 800063c:	b2eb      	uxtb	r3, r5
 800063e:	4620      	mov	r0, r4
 8000640:	ca06      	ldmia	r2, {r1, r2}
 8000642:	f000 fef3 	bl	800142c <ssd1306_WriteString>
 8000646:	e8bd 4038 	ldmia.w	sp!, {r3, r4, r5, lr}
 800064a:	f000 be5b 	b.w	8001304 <ssd1306_UpdateScreen>
 800064e:	bf00      	nop
 8000650:	2000001c 	.word	0x2000001c

08000654 <writeTinyFont>:
 8000654:	b538      	push	{r3, r4, r5, lr}
 8000656:	b2c9      	uxtb	r1, r1
 8000658:	b2c0      	uxtb	r0, r0
 800065a:	4615      	mov	r5, r2
 800065c:	461c      	mov	r4, r3
 800065e:	f000 fefb 	bl	8001458 <ssd1306_SetCursor>
 8000662:	4a05      	ldr	r2, [pc, #20]	; (8000678 <writeTinyFont+0x24>)
 8000664:	b2eb      	uxtb	r3, r5
 8000666:	4620      	mov	r0, r4
 8000668:	ca06      	ldmia	r2, {r1, r2}
 800066a:	f000 fedf 	bl	800142c <ssd1306_WriteString>
 800066e:	e8bd 4038 	ldmia.w	sp!, {r3, r4, r5, lr}
 8000672:	f000 be47 	b.w	8001304 <ssd1306_UpdateScreen>
 8000676:	bf00      	nop
 8000678:	20000014 	.word	0x20000014

0800067c <clearScreen>:
 800067c:	b2c0      	uxtb	r0, r0
 800067e:	f000 be31 	b.w	80012e4 <ssd1306_Fill>
	...

08000684 <APPD_EnableCPU2>:
 8000684:	b570      	push	{r4, r5, r6, lr}
 8000686:	4b0c      	ldr	r3, [pc, #48]	; (80006b8 <APPD_EnableCPU2+0x34>)
 8000688:	b088      	sub	sp, #32
 800068a:	aa01      	add	r2, sp, #4
 800068c:	f103 0618 	add.w	r6, r3, #24
 8000690:	4615      	mov	r5, r2
 8000692:	6818      	ldr	r0, [r3, #0]
 8000694:	6859      	ldr	r1, [r3, #4]
 8000696:	4614      	mov	r4, r2
 8000698:	c403      	stmia	r4!, {r0, r1}
 800069a:	3308      	adds	r3, #8
 800069c:	42b3      	cmp	r3, r6
 800069e:	4622      	mov	r2, r4
 80006a0:	d1f7      	bne.n	8000692 <APPD_EnableCPU2+0xe>
 80006a2:	8819      	ldrh	r1, [r3, #0]
 80006a4:	789b      	ldrb	r3, [r3, #2]
 80006a6:	8021      	strh	r1, [r4, #0]
 80006a8:	70a3      	strb	r3, [r4, #2]
 80006aa:	f003 fee5 	bl	8004478 <TL_TRACES_Init>
 80006ae:	4628      	mov	r0, r5
 80006b0:	f003 fbdc 	bl	8003e6c <SHCI_C2_DEBUG_Init>
 80006b4:	b008      	add	sp, #32
 80006b6:	bd70      	pop	{r4, r5, r6, pc}
 80006b8:	0800589c 	.word	0x0800589c

080006bc <APPE_SysStatusNot>:
 80006bc:	4770      	bx	lr
	...

080006c0 <APPE_SysUserEvtRx>:
 80006c0:	b530      	push	{r4, r5, lr}
 80006c2:	6845      	ldr	r5, [r0, #4]
 80006c4:	b089      	sub	sp, #36	; 0x24
 80006c6:	4604      	mov	r4, r0
 80006c8:	a804      	add	r0, sp, #16
 80006ca:	f003 fbeb 	bl	8003ea4 <SHCI_GetWirelessFwInfo>
 80006ce:	f8b5 300b 	ldrh.w	r3, [r5, #11]
 80006d2:	f5b3 4f12 	cmp.w	r3, #37376	; 0x9200
 80006d6:	d11d      	bne.n	8000714 <APPE_SysUserEvtRx+0x54>
 80006d8:	220e      	movs	r2, #14
 80006da:	2100      	movs	r1, #0
 80006dc:	4668      	mov	r0, sp
 80006de:	f004 fc7b 	bl	8004fd8 <memset>
 80006e2:	6863      	ldr	r3, [r4, #4]
 80006e4:	7b5d      	ldrb	r5, [r3, #13]
 80006e6:	b9bd      	cbnz	r5, 8000718 <APPE_SysUserEvtRx+0x58>
 80006e8:	f7ff ffcc 	bl	8000684 <APPD_EnableCPU2>
 80006ec:	230d      	movs	r3, #13
 80006ee:	f88d 3000 	strb.w	r3, [sp]
 80006f2:	237f      	movs	r3, #127	; 0x7f
 80006f4:	f88d 3002 	strb.w	r3, [sp, #2]
 80006f8:	4b0a      	ldr	r3, [pc, #40]	; (8000724 <APPE_SysUserEvtRx+0x64>)
 80006fa:	681b      	ldr	r3, [r3, #0]
 80006fc:	4668      	mov	r0, sp
 80006fe:	0c1b      	lsrs	r3, r3, #16
 8000700:	f8ad 300c 	strh.w	r3, [sp, #12]
 8000704:	f003 fbc0 	bl	8003e88 <SHCI_C2_Config>
 8000708:	f003 ff68 	bl	80045dc <APP_BLE_Init>
 800070c:	4629      	mov	r1, r5
 800070e:	2001      	movs	r0, #1
 8000710:	f004 fad2 	bl	8004cb8 <UTIL_LPM_SetOffMode>
 8000714:	b009      	add	sp, #36	; 0x24
 8000716:	bd30      	pop	{r4, r5, pc}
 8000718:	2d01      	cmp	r5, #1
 800071a:	bf04      	itt	eq
 800071c:	2300      	moveq	r3, #0
 800071e:	7023      	strbeq	r3, [r4, #0]
 8000720:	e7f8      	b.n	8000714 <APPE_SysUserEvtRx+0x54>
 8000722:	bf00      	nop
 8000724:	e0042000 	.word	0xe0042000

08000728 <MX_APPE_Config>:
 8000728:	4b27      	ldr	r3, [pc, #156]	; (80007c8 <MX_APPE_Config+0xa0>)
 800072a:	b513      	push	{r0, r1, r4, lr}
 800072c:	f44f 4200 	mov.w	r2, #32768	; 0x8000
 8000730:	f04f 44b0 	mov.w	r4, #1476395008	; 0x58000000
 8000734:	611a      	str	r2, [r3, #16]
 8000736:	f8d4 3094 	ldr.w	r3, [r4, #148]	; 0x94
 800073a:	015a      	lsls	r2, r3, #5
 800073c:	d513      	bpl.n	8000766 <MX_APPE_Config+0x3e>
 800073e:	f8d4 3094 	ldr.w	r3, [r4, #148]	; 0x94
 8000742:	00db      	lsls	r3, r3, #3
 8000744:	d40f      	bmi.n	8000766 <MX_APPE_Config+0x3e>
 8000746:	f001 fcb5 	bl	80020b4 <HAL_PWR_EnableBkUpAccess>
 800074a:	f001 fcb3 	bl	80020b4 <HAL_PWR_EnableBkUpAccess>
 800074e:	f8d4 3090 	ldr.w	r3, [r4, #144]	; 0x90
 8000752:	f443 3380 	orr.w	r3, r3, #65536	; 0x10000
 8000756:	f8c4 3090 	str.w	r3, [r4, #144]	; 0x90
 800075a:	f8d4 3090 	ldr.w	r3, [r4, #144]	; 0x90
 800075e:	f423 3380 	bic.w	r3, r3, #65536	; 0x10000
 8000762:	f8c4 3090 	str.w	r3, [r4, #144]	; 0x90
 8000766:	f04f 44b0 	mov.w	r4, #1476395008	; 0x58000000
 800076a:	223f      	movs	r2, #63	; 0x3f
 800076c:	6d23      	ldr	r3, [r4, #80]	; 0x50
 800076e:	f443 1380 	orr.w	r3, r3, #1048576	; 0x100000
 8000772:	6523      	str	r3, [r4, #80]	; 0x50
 8000774:	6d23      	ldr	r3, [r4, #80]	; 0x50
 8000776:	f403 1380 	and.w	r3, r3, #1048576	; 0x100000
 800077a:	9301      	str	r3, [sp, #4]
 800077c:	9b01      	ldr	r3, [sp, #4]
 800077e:	4b13      	ldr	r3, [pc, #76]	; (80007cc <MX_APPE_Config+0xa4>)
 8000780:	609a      	str	r2, [r3, #8]
 8000782:	619a      	str	r2, [r3, #24]
 8000784:	685a      	ldr	r2, [r3, #4]
 8000786:	f442 127c 	orr.w	r2, r2, #4128768	; 0x3f0000
 800078a:	605a      	str	r2, [r3, #4]
 800078c:	695a      	ldr	r2, [r3, #20]
 800078e:	f442 127c 	orr.w	r2, r2, #4128768	; 0x3f0000
 8000792:	615a      	str	r2, [r3, #20]
 8000794:	685a      	ldr	r2, [r3, #4]
 8000796:	f042 023f 	orr.w	r2, r2, #63	; 0x3f
 800079a:	605a      	str	r2, [r3, #4]
 800079c:	695a      	ldr	r2, [r3, #20]
 800079e:	f042 023f 	orr.w	r2, r2, #63	; 0x3f
 80007a2:	615a      	str	r2, [r3, #20]
 80007a4:	2000      	movs	r0, #0
 80007a6:	f003 fe8b 	bl	80044c0 <OTP_Read>
 80007aa:	b158      	cbz	r0, 80007c4 <MX_APPE_Config+0x9c>
 80007ac:	4b08      	ldr	r3, [pc, #32]	; (80007d0 <MX_APPE_Config+0xa8>)
 80007ae:	7982      	ldrb	r2, [r0, #6]
 80007b0:	f8c4 309c 	str.w	r3, [r4, #156]	; 0x9c
 80007b4:	f8d4 309c 	ldr.w	r3, [r4, #156]	; 0x9c
 80007b8:	f423 537c 	bic.w	r3, r3, #16128	; 0x3f00
 80007bc:	ea43 2302 	orr.w	r3, r3, r2, lsl #8
 80007c0:	f8c4 309c 	str.w	r3, [r4, #156]	; 0x9c
 80007c4:	b002      	add	sp, #8
 80007c6:	bd10      	pop	{r4, pc}
 80007c8:	58004000 	.word	0x58004000
 80007cc:	58000c00 	.word	0x58000c00
 80007d0:	cafecafe 	.word	0xcafecafe

080007d4 <Init_Exti>:
 80007d4:	4b02      	ldr	r3, [pc, #8]	; (80007e0 <Init_Exti+0xc>)
 80007d6:	f8d3 2090 	ldr.w	r2, [r3, #144]	; 0x90
 80007da:	f8c3 2090 	str.w	r2, [r3, #144]	; 0x90
 80007de:	4770      	bx	lr
 80007e0:	58000800 	.word	0x58000800

080007e4 <MX_APPE_Init>:
 80007e4:	b510      	push	{r4, lr}
 80007e6:	b088      	sub	sp, #32
 80007e8:	f7ff fff4 	bl	80007d4 <Init_Exti>
 80007ec:	4b20      	ldr	r3, [pc, #128]	; (8000870 <MX_APPE_Init+0x8c>)
 80007ee:	4c21      	ldr	r4, [pc, #132]	; (8000874 <MX_APPE_Init+0x90>)
 80007f0:	22ca      	movs	r2, #202	; 0xca
 80007f2:	625a      	str	r2, [r3, #36]	; 0x24
 80007f4:	2253      	movs	r2, #83	; 0x53
 80007f6:	625a      	str	r2, [r3, #36]	; 0x24
 80007f8:	689a      	ldr	r2, [r3, #8]
 80007fa:	f022 0207 	bic.w	r2, r2, #7
 80007fe:	609a      	str	r2, [r3, #8]
 8000800:	22ff      	movs	r2, #255	; 0xff
 8000802:	625a      	str	r2, [r3, #36]	; 0x24
 8000804:	f04f 42b0 	mov.w	r2, #1476395008	; 0x58000000
 8000808:	6893      	ldr	r3, [r2, #8]
 800080a:	f443 4300 	orr.w	r3, r3, #32768	; 0x8000
 800080e:	6093      	str	r3, [r2, #8]
 8000810:	f004 fa48 	bl	8004ca4 <UTIL_LPM_Init>
 8000814:	4a18      	ldr	r2, [pc, #96]	; (8000878 <MX_APPE_Init+0x94>)
 8000816:	4919      	ldr	r1, [pc, #100]	; (800087c <MX_APPE_Init+0x98>)
 8000818:	f8d2 3080 	ldr.w	r3, [r2, #128]	; 0x80
 800081c:	f023 0307 	bic.w	r3, r3, #7
 8000820:	f043 0304 	orr.w	r3, r3, #4
 8000824:	f8c2 3080 	str.w	r3, [r2, #128]	; 0x80
 8000828:	2000      	movs	r0, #0
 800082a:	f000 f953 	bl	8000ad4 <HW_TS_Init>
 800082e:	f003 fd35 	bl	800429c <TL_Init>
 8000832:	4a13      	ldr	r2, [pc, #76]	; (8000880 <MX_APPE_Init+0x9c>)
 8000834:	2100      	movs	r1, #0
 8000836:	2008      	movs	r0, #8
 8000838:	f004 fb6c 	bl	8004f14 <UTIL_SEQ_RegTask>
 800083c:	4669      	mov	r1, sp
 800083e:	4b11      	ldr	r3, [pc, #68]	; (8000884 <MX_APPE_Init+0xa0>)
 8000840:	4811      	ldr	r0, [pc, #68]	; (8000888 <MX_APPE_Init+0xa4>)
 8000842:	9400      	str	r4, [sp, #0]
 8000844:	9301      	str	r3, [sp, #4]
 8000846:	f003 fc6b 	bl	8004120 <shci_init>
 800084a:	f504 7386 	add.w	r3, r4, #268	; 0x10c
 800084e:	9302      	str	r3, [sp, #8]
 8000850:	f504 7306 	add.w	r3, r4, #536	; 0x218
 8000854:	9303      	str	r3, [sp, #12]
 8000856:	a802      	add	r0, sp, #8
 8000858:	f240 533c 	movw	r3, #1340	; 0x53c
 800085c:	f504 7449 	add.w	r4, r4, #804	; 0x324
 8000860:	9305      	str	r3, [sp, #20]
 8000862:	9404      	str	r4, [sp, #16]
 8000864:	f003 fdda 	bl	800441c <TL_MM_Init>
 8000868:	f003 fd16 	bl	8004298 <TL_Enable>
 800086c:	b008      	add	sp, #32
 800086e:	bd10      	pop	{r4, pc}
 8000870:	40002800 	.word	0x40002800
 8000874:	200301e8 	.word	0x200301e8
 8000878:	58000400 	.word	0x58000400
 800087c:	200002c0 	.word	0x200002c0
 8000880:	08004175 	.word	0x08004175
 8000884:	080006bd 	.word	0x080006bd
 8000888:	080006c1 	.word	0x080006c1

0800088c <HAL_Delay>:
 800088c:	b570      	push	{r4, r5, r6, lr}
 800088e:	4604      	mov	r4, r0
 8000890:	f000 ffc6 	bl	8001820 <HAL_GetTick>
 8000894:	1c63      	adds	r3, r4, #1
 8000896:	4605      	mov	r5, r0
 8000898:	d002      	beq.n	80008a0 <HAL_Delay+0x14>
 800089a:	f000 ffcd 	bl	8001838 <HAL_GetTickFreq>
 800089e:	4404      	add	r4, r0
 80008a0:	4e06      	ldr	r6, [pc, #24]	; (80008bc <HAL_Delay+0x30>)
 80008a2:	e004      	b.n	80008ae <HAL_Delay+0x22>
 80008a4:	6933      	ldr	r3, [r6, #16]
 80008a6:	f023 0304 	bic.w	r3, r3, #4
 80008aa:	6133      	str	r3, [r6, #16]
 80008ac:	bf30      	wfi
 80008ae:	f000 ffb7 	bl	8001820 <HAL_GetTick>
 80008b2:	1b43      	subs	r3, r0, r5
 80008b4:	42a3      	cmp	r3, r4
 80008b6:	d3f5      	bcc.n	80008a4 <HAL_Delay+0x18>
 80008b8:	bd70      	pop	{r4, r5, r6, pc}
 80008ba:	bf00      	nop
 80008bc:	e000ed00 	.word	0xe000ed00

080008c0 <MX_APPE_Process>:
 80008c0:	f04f 30ff 	mov.w	r0, #4294967295
 80008c4:	f004 ba6c 	b.w	8004da0 <UTIL_SEQ_Run>

080008c8 <UTIL_SEQ_Idle>:
 80008c8:	4770      	bx	lr

080008ca <UTIL_SEQ_EvtIdle>:
 80008ca:	f04f 30ff 	mov.w	r0, #4294967295
 80008ce:	f004 ba67 	b.w	8004da0 <UTIL_SEQ_Run>

080008d2 <shci_notify_asynch_evt>:
 80008d2:	2100      	movs	r1, #0
 80008d4:	2008      	movs	r0, #8
 80008d6:	f004 ba05 	b.w	8004ce4 <UTIL_SEQ_SetTask>

080008da <shci_cmd_resp_release>:
 80008da:	2002      	movs	r0, #2
 80008dc:	f004 ba32 	b.w	8004d44 <UTIL_SEQ_SetEvt>

080008e0 <shci_cmd_resp_wait>:
 80008e0:	2002      	movs	r0, #2
 80008e2:	f004 bae9 	b.w	8004eb8 <UTIL_SEQ_WaitEvt>
	...

080008e8 <ReadRtcSsrValue>:
 80008e8:	4a05      	ldr	r2, [pc, #20]	; (8000900 <ReadRtcSsrValue+0x18>)
 80008ea:	6a90      	ldr	r0, [r2, #40]	; 0x28
 80008ec:	6a93      	ldr	r3, [r2, #40]	; 0x28
 80008ee:	b280      	uxth	r0, r0
 80008f0:	b29b      	uxth	r3, r3
 80008f2:	4298      	cmp	r0, r3
 80008f4:	d100      	bne.n	80008f8 <ReadRtcSsrValue+0x10>
 80008f6:	4770      	bx	lr
 80008f8:	6a91      	ldr	r1, [r2, #40]	; 0x28
 80008fa:	4618      	mov	r0, r3
 80008fc:	b28b      	uxth	r3, r1
 80008fe:	e7f8      	b.n	80008f2 <ReadRtcSsrValue+0xa>
 8000900:	40002800 	.word	0x40002800

08000904 <UnlinkTimer>:
 8000904:	b5f0      	push	{r4, r5, r6, r7, lr}
 8000906:	4b19      	ldr	r3, [pc, #100]	; (800096c <UnlinkTimer+0x68>)
 8000908:	781a      	ldrb	r2, [r3, #0]
 800090a:	4282      	cmp	r2, r0
 800090c:	f04f 0218 	mov.w	r2, #24
 8000910:	d115      	bne.n	800093e <UnlinkTimer+0x3a>
 8000912:	781c      	ldrb	r4, [r3, #0]
 8000914:	fb02 3200 	mla	r2, r2, r0, r3
 8000918:	b2e4      	uxtb	r4, r4
 800091a:	705c      	strb	r4, [r3, #1]
 800091c:	7e52      	ldrb	r2, [r2, #25]
 800091e:	b2d2      	uxtb	r2, r2
 8000920:	701a      	strb	r2, [r3, #0]
 8000922:	2218      	movs	r2, #24
 8000924:	fb02 3000 	mla	r0, r2, r0, r3
 8000928:	2201      	movs	r2, #1
 800092a:	7402      	strb	r2, [r0, #16]
 800092c:	781a      	ldrb	r2, [r3, #0]
 800092e:	2a06      	cmp	r2, #6
 8000930:	d104      	bne.n	800093c <UnlinkTimer+0x38>
 8000932:	b919      	cbnz	r1, 800093c <UnlinkTimer+0x38>
 8000934:	f04f 32ff 	mov.w	r2, #4294967295
 8000938:	f8c3 2094 	str.w	r2, [r3, #148]	; 0x94
 800093c:	bdf0      	pop	{r4, r5, r6, r7, pc}
 800093e:	fb02 3400 	mla	r4, r2, r0, r3
 8000942:	7e26      	ldrb	r6, [r4, #24]
 8000944:	f894 c019 	ldrb.w	ip, [r4, #25]
 8000948:	7e67      	ldrb	r7, [r4, #25]
 800094a:	fb02 3606 	mla	r6, r2, r6, r3
 800094e:	b2ff      	uxtb	r7, r7
 8000950:	f1bc 0f06 	cmp.w	ip, #6
 8000954:	7677      	strb	r7, [r6, #25]
 8000956:	bf18      	it	ne
 8000958:	7e24      	ldrbne	r4, [r4, #24]
 800095a:	fa5f f58c 	uxtb.w	r5, ip
 800095e:	bf1e      	ittt	ne
 8000960:	fb02 3205 	mlane	r2, r2, r5, r3
 8000964:	b2e4      	uxtbne	r4, r4
 8000966:	7614      	strbne	r4, [r2, #24]
 8000968:	e7db      	b.n	8000922 <UnlinkTimer+0x1e>
 800096a:	bf00      	nop
 800096c:	200000a4 	.word	0x200000a4

08000970 <ReturnTimeElapsed>:
 8000970:	b510      	push	{r4, lr}
 8000972:	4c0f      	ldr	r4, [pc, #60]	; (80009b0 <ReturnTimeElapsed+0x40>)
 8000974:	f8d4 3094 	ldr.w	r3, [r4, #148]	; 0x94
 8000978:	3301      	adds	r3, #1
 800097a:	d016      	beq.n	80009aa <ReturnTimeElapsed+0x3a>
 800097c:	f7ff ffb4 	bl	80008e8 <ReadRtcSsrValue>
 8000980:	f8d4 3094 	ldr.w	r3, [r4, #148]	; 0x94
 8000984:	4283      	cmp	r3, r0
 8000986:	bf3d      	ittte	cc
 8000988:	4b0a      	ldrcc	r3, [pc, #40]	; (80009b4 <ReturnTimeElapsed+0x44>)
 800098a:	f8d4 2094 	ldrcc.w	r2, [r4, #148]	; 0x94
 800098e:	881b      	ldrhcc	r3, [r3, #0]
 8000990:	f8d4 3094 	ldrcs.w	r3, [r4, #148]	; 0x94
 8000994:	bf38      	it	cc
 8000996:	189b      	addcc	r3, r3, r2
 8000998:	1a18      	subs	r0, r3, r0
 800099a:	4b07      	ldr	r3, [pc, #28]	; (80009b8 <ReturnTimeElapsed+0x48>)
 800099c:	781b      	ldrb	r3, [r3, #0]
 800099e:	4358      	muls	r0, r3
 80009a0:	4b06      	ldr	r3, [pc, #24]	; (80009bc <ReturnTimeElapsed+0x4c>)
 80009a2:	781b      	ldrb	r3, [r3, #0]
 80009a4:	40d8      	lsrs	r0, r3
 80009a6:	b280      	uxth	r0, r0
 80009a8:	bd10      	pop	{r4, pc}
 80009aa:	2000      	movs	r0, #0
 80009ac:	e7fb      	b.n	80009a6 <ReturnTimeElapsed+0x36>
 80009ae:	bf00      	nop
 80009b0:	200000a4 	.word	0x200000a4
 80009b4:	20000230 	.word	0x20000230
 80009b8:	2000022c 	.word	0x2000022c
 80009bc:	20000232 	.word	0x20000232

080009c0 <RescheduleTimerList>:
 80009c0:	e92d 41f0 	stmdb	sp!, {r4, r5, r6, r7, r8, lr}
 80009c4:	4f3d      	ldr	r7, [pc, #244]	; (8000abc <RescheduleTimerList+0xfc>)
 80009c6:	4b3e      	ldr	r3, [pc, #248]	; (8000ac0 <RescheduleTimerList+0x100>)
 80009c8:	f8d7 8000 	ldr.w	r8, [r7]
 80009cc:	689a      	ldr	r2, [r3, #8]
 80009ce:	f8d8 3000 	ldr.w	r3, [r8]
 80009d2:	f412 6f80 	tst.w	r2, #1024	; 0x400
 80009d6:	d003      	beq.n	80009e0 <RescheduleTimerList+0x20>
 80009d8:	68da      	ldr	r2, [r3, #12]
 80009da:	f012 0f04 	tst.w	r2, #4
 80009de:	e7fa      	b.n	80009d6 <RescheduleTimerList+0x16>
 80009e0:	689a      	ldr	r2, [r3, #8]
 80009e2:	4d38      	ldr	r5, [pc, #224]	; (8000ac4 <RescheduleTimerList+0x104>)
 80009e4:	f422 6280 	bic.w	r2, r2, #1024	; 0x400
 80009e8:	609a      	str	r2, [r3, #8]
 80009ea:	782b      	ldrb	r3, [r5, #0]
 80009ec:	2218      	movs	r2, #24
 80009ee:	b2de      	uxtb	r6, r3
 80009f0:	fb02 5303 	mla	r3, r2, r3, r5
 80009f4:	68dc      	ldr	r4, [r3, #12]
 80009f6:	f7ff ffbb 	bl	8000970 <ReturnTimeElapsed>
 80009fa:	42a0      	cmp	r0, r4
 80009fc:	d907      	bls.n	8000a0e <RescheduleTimerList+0x4e>
 80009fe:	2301      	movs	r3, #1
 8000a00:	f885 3098 	strb.w	r3, [r5, #152]	; 0x98
 8000a04:	2400      	movs	r4, #0
 8000a06:	2118      	movs	r1, #24
 8000a08:	f04f 0c00 	mov.w	ip, #0
 8000a0c:	e01d      	b.n	8000a4a <RescheduleTimerList+0x8a>
 8000a0e:	4a2e      	ldr	r2, [pc, #184]	; (8000ac8 <RescheduleTimerList+0x108>)
 8000a10:	8813      	ldrh	r3, [r2, #0]
 8000a12:	fa10 f383 	uxtah	r3, r0, r3
 8000a16:	42a3      	cmp	r3, r4
 8000a18:	bf39      	ittee	cc
 8000a1a:	8814      	ldrhcc	r4, [r2, #0]
 8000a1c:	2300      	movcc	r3, #0
 8000a1e:	1a24      	subcs	r4, r4, r0
 8000a20:	2301      	movcs	r3, #1
 8000a22:	bf34      	ite	cc
 8000a24:	b2a4      	uxthcc	r4, r4
 8000a26:	b2a4      	uxthcs	r4, r4
 8000a28:	f885 3098 	strb.w	r3, [r5, #152]	; 0x98
 8000a2c:	e7eb      	b.n	8000a06 <RescheduleTimerList+0x46>
 8000a2e:	fb01 5306 	mla	r3, r1, r6, r5
 8000a32:	fb01 5606 	mla	r6, r1, r6, r5
 8000a36:	68da      	ldr	r2, [r3, #12]
 8000a38:	4290      	cmp	r0, r2
 8000a3a:	bf97      	itett	ls
 8000a3c:	68da      	ldrls	r2, [r3, #12]
 8000a3e:	f8c3 c00c 	strhi.w	ip, [r3, #12]
 8000a42:	1a12      	subls	r2, r2, r0
 8000a44:	60da      	strls	r2, [r3, #12]
 8000a46:	7e76      	ldrb	r6, [r6, #25]
 8000a48:	b2f6      	uxtb	r6, r6
 8000a4a:	2e06      	cmp	r6, #6
 8000a4c:	d1ef      	bne.n	8000a2e <RescheduleTimerList+0x6e>
 8000a4e:	b944      	cbnz	r4, 8000a62 <RescheduleTimerList+0xa2>
 8000a50:	f7ff ff4a 	bl	80008e8 <ReadRtcSsrValue>
 8000a54:	f8c5 0094 	str.w	r0, [r5, #148]	; 0x94
 8000a58:	e8bd 41f0 	ldmia.w	sp!, {r4, r5, r6, r7, r8, lr}
 8000a5c:	2003      	movs	r0, #3
 8000a5e:	f000 bf6b 	b.w	8001938 <HAL_NVIC_SetPendingIRQ>
 8000a62:	2c01      	cmp	r4, #1
 8000a64:	d103      	bne.n	8000a6e <RescheduleTimerList+0xae>
 8000a66:	4b19      	ldr	r3, [pc, #100]	; (8000acc <RescheduleTimerList+0x10c>)
 8000a68:	781b      	ldrb	r3, [r3, #0]
 8000a6a:	2b01      	cmp	r3, #1
 8000a6c:	d001      	beq.n	8000a72 <RescheduleTimerList+0xb2>
 8000a6e:	3c01      	subs	r4, #1
 8000a70:	b2a4      	uxth	r4, r4
 8000a72:	f8d8 2000 	ldr.w	r2, [r8]
 8000a76:	68d3      	ldr	r3, [r2, #12]
 8000a78:	075b      	lsls	r3, r3, #29
 8000a7a:	d5fc      	bpl.n	8000a76 <RescheduleTimerList+0xb6>
 8000a7c:	68d3      	ldr	r3, [r2, #12]
 8000a7e:	b2db      	uxtb	r3, r3
 8000a80:	f463 6390 	orn	r3, r3, #1152	; 0x480
 8000a84:	60d3      	str	r3, [r2, #12]
 8000a86:	4b12      	ldr	r3, [pc, #72]	; (8000ad0 <RescheduleTimerList+0x110>)
 8000a88:	f44f 2200 	mov.w	r2, #524288	; 0x80000
 8000a8c:	60da      	str	r2, [r3, #12]
 8000a8e:	2003      	movs	r0, #3
 8000a90:	f000 ff62 	bl	8001958 <HAL_NVIC_ClearPendingIRQ>
 8000a94:	4a0a      	ldr	r2, [pc, #40]	; (8000ac0 <RescheduleTimerList+0x100>)
 8000a96:	6953      	ldr	r3, [r2, #20]
 8000a98:	0c1b      	lsrs	r3, r3, #16
 8000a9a:	041b      	lsls	r3, r3, #16
 8000a9c:	4323      	orrs	r3, r4
 8000a9e:	6153      	str	r3, [r2, #20]
 8000aa0:	f7ff ff22 	bl	80008e8 <ReadRtcSsrValue>
 8000aa4:	683b      	ldr	r3, [r7, #0]
 8000aa6:	f8c5 0094 	str.w	r0, [r5, #148]	; 0x94
 8000aaa:	681a      	ldr	r2, [r3, #0]
 8000aac:	6893      	ldr	r3, [r2, #8]
 8000aae:	f443 6380 	orr.w	r3, r3, #1024	; 0x400
 8000ab2:	6093      	str	r3, [r2, #8]
 8000ab4:	f3af 8000 	nop.w
 8000ab8:	e8bd 81f0 	ldmia.w	sp!, {r4, r5, r6, r7, r8, pc}
 8000abc:	20000234 	.word	0x20000234
 8000ac0:	40002800 	.word	0x40002800
 8000ac4:	200000a4 	.word	0x200000a4
 8000ac8:	2000022e 	.word	0x2000022e
 8000acc:	20000232 	.word	0x20000232
 8000ad0:	58000800 	.word	0x58000800

08000ad4 <HW_TS_Init>:
 8000ad4:	b570      	push	{r4, r5, r6, lr}
 8000ad6:	680d      	ldr	r5, [r1, #0]
 8000ad8:	4a40      	ldr	r2, [pc, #256]	; (8000bdc <HW_TS_Init+0x108>)
 8000ada:	4c41      	ldr	r4, [pc, #260]	; (8000be0 <HW_TS_Init+0x10c>)
 8000adc:	23ca      	movs	r3, #202	; 0xca
 8000ade:	626b      	str	r3, [r5, #36]	; 0x24
 8000ae0:	2353      	movs	r3, #83	; 0x53
 8000ae2:	626b      	str	r3, [r5, #36]	; 0x24
 8000ae4:	6893      	ldr	r3, [r2, #8]
 8000ae6:	6021      	str	r1, [r4, #0]
 8000ae8:	f043 0320 	orr.w	r3, r3, #32
 8000aec:	6093      	str	r3, [r2, #8]
 8000aee:	6893      	ldr	r3, [r2, #8]
 8000af0:	f003 0307 	and.w	r3, r3, #7
 8000af4:	f1c3 0304 	rsb	r3, r3, #4
 8000af8:	b2de      	uxtb	r6, r3
 8000afa:	4b3a      	ldr	r3, [pc, #232]	; (8000be4 <HW_TS_Init+0x110>)
 8000afc:	701e      	strb	r6, [r3, #0]
 8000afe:	6913      	ldr	r3, [r2, #16]
 8000b00:	f44f 01fe 	mov.w	r1, #8323072	; 0x7f0000
 8000b04:	f403 03fe 	and.w	r3, r3, #8323072	; 0x7f0000
 8000b08:	fa91 f1a1 	rbit	r1, r1
 8000b0c:	fab1 f181 	clz	r1, r1
 8000b10:	40cb      	lsrs	r3, r1
 8000b12:	3301      	adds	r3, #1
 8000b14:	b2d9      	uxtb	r1, r3
 8000b16:	4b34      	ldr	r3, [pc, #208]	; (8000be8 <HW_TS_Init+0x114>)
 8000b18:	7019      	strb	r1, [r3, #0]
 8000b1a:	6912      	ldr	r2, [r2, #16]
 8000b1c:	4b33      	ldr	r3, [pc, #204]	; (8000bec <HW_TS_Init+0x118>)
 8000b1e:	f3c2 020e 	ubfx	r2, r2, #0, #15
 8000b22:	3201      	adds	r2, #1
 8000b24:	801a      	strh	r2, [r3, #0]
 8000b26:	1e53      	subs	r3, r2, #1
 8000b28:	434b      	muls	r3, r1
 8000b2a:	f5a3 73a0 	sub.w	r3, r3, #320	; 0x140
 8000b2e:	40f3      	lsrs	r3, r6
 8000b30:	f64f 72fe 	movw	r2, #65534	; 0xfffe
 8000b34:	4293      	cmp	r3, r2
 8000b36:	4a2e      	ldr	r2, [pc, #184]	; (8000bf0 <HW_TS_Init+0x11c>)
 8000b38:	bf8c      	ite	hi
 8000b3a:	f64f 73ff 	movwhi	r3, #65535	; 0xffff
 8000b3e:	b29b      	uxthls	r3, r3
 8000b40:	8013      	strh	r3, [r2, #0]
 8000b42:	4a2c      	ldr	r2, [pc, #176]	; (8000bf4 <HW_TS_Init+0x120>)
 8000b44:	6813      	ldr	r3, [r2, #0]
 8000b46:	f443 2300 	orr.w	r3, r3, #524288	; 0x80000
 8000b4a:	6013      	str	r3, [r2, #0]
 8000b4c:	f8d2 3080 	ldr.w	r3, [r2, #128]	; 0x80
 8000b50:	f443 2300 	orr.w	r3, r3, #524288	; 0x80000
 8000b54:	f8c2 3080 	str.w	r3, [r2, #128]	; 0x80
 8000b58:	2800      	cmp	r0, #0
 8000b5a:	d137      	bne.n	8000bcc <HW_TS_Init+0xf8>
 8000b5c:	4b26      	ldr	r3, [pc, #152]	; (8000bf8 <HW_TS_Init+0x124>)
 8000b5e:	2101      	movs	r1, #1
 8000b60:	f883 1098 	strb.w	r1, [r3, #152]	; 0x98
 8000b64:	f04f 31ff 	mov.w	r1, #4294967295
 8000b68:	f8c3 1094 	str.w	r1, [r3, #148]	; 0x94
 8000b6c:	2106      	movs	r1, #6
 8000b6e:	7418      	strb	r0, [r3, #16]
 8000b70:	f883 0028 	strb.w	r0, [r3, #40]	; 0x28
 8000b74:	f883 0040 	strb.w	r0, [r3, #64]	; 0x40
 8000b78:	f883 0058 	strb.w	r0, [r3, #88]	; 0x58
 8000b7c:	f883 0070 	strb.w	r0, [r3, #112]	; 0x70
 8000b80:	f883 0088 	strb.w	r0, [r3, #136]	; 0x88
 8000b84:	7019      	strb	r1, [r3, #0]
 8000b86:	68ab      	ldr	r3, [r5, #8]
 8000b88:	f423 6380 	bic.w	r3, r3, #1024	; 0x400
 8000b8c:	60ab      	str	r3, [r5, #8]
 8000b8e:	68eb      	ldr	r3, [r5, #12]
 8000b90:	b2db      	uxtb	r3, r3
 8000b92:	f463 6390 	orn	r3, r3, #1152	; 0x480
 8000b96:	60eb      	str	r3, [r5, #12]
 8000b98:	f44f 2300 	mov.w	r3, #524288	; 0x80000
 8000b9c:	60d3      	str	r3, [r2, #12]
 8000b9e:	2003      	movs	r0, #3
 8000ba0:	f000 feda 	bl	8001958 <HAL_NVIC_ClearPendingIRQ>
 8000ba4:	6823      	ldr	r3, [r4, #0]
 8000ba6:	681a      	ldr	r2, [r3, #0]
 8000ba8:	6893      	ldr	r3, [r2, #8]
 8000baa:	f443 4380 	orr.w	r3, r3, #16384	; 0x4000
 8000bae:	6093      	str	r3, [r2, #8]
 8000bb0:	6823      	ldr	r3, [r4, #0]
 8000bb2:	681b      	ldr	r3, [r3, #0]
 8000bb4:	22ff      	movs	r2, #255	; 0xff
 8000bb6:	2103      	movs	r1, #3
 8000bb8:	625a      	str	r2, [r3, #36]	; 0x24
 8000bba:	4608      	mov	r0, r1
 8000bbc:	2200      	movs	r2, #0
 8000bbe:	f000 fe53 	bl	8001868 <HAL_NVIC_SetPriority>
 8000bc2:	e8bd 4070 	ldmia.w	sp!, {r4, r5, r6, lr}
 8000bc6:	2003      	movs	r0, #3
 8000bc8:	f000 be80 	b.w	80018cc <HAL_NVIC_EnableIRQ>
 8000bcc:	68eb      	ldr	r3, [r5, #12]
 8000bce:	055b      	lsls	r3, r3, #21
 8000bd0:	d5ee      	bpl.n	8000bb0 <HW_TS_Init+0xdc>
 8000bd2:	2003      	movs	r0, #3
 8000bd4:	f000 feb0 	bl	8001938 <HAL_NVIC_SetPendingIRQ>
 8000bd8:	e7ea      	b.n	8000bb0 <HW_TS_Init+0xdc>
 8000bda:	bf00      	nop
 8000bdc:	40002800 	.word	0x40002800
 8000be0:	20000234 	.word	0x20000234
 8000be4:	20000232 	.word	0x20000232
 8000be8:	2000022c 	.word	0x2000022c
 8000bec:	20000230 	.word	0x20000230
 8000bf0:	2000022e 	.word	0x2000022e
 8000bf4:	58000800 	.word	0x58000800
 8000bf8:	200000a4 	.word	0x200000a4

08000bfc <HW_TS_Stop>:
 8000bfc:	e92d 41f0 	stmdb	sp!, {r4, r5, r6, r7, r8, lr}
 8000c00:	4604      	mov	r4, r0
 8000c02:	f3ef 8710 	mrs	r7, PRIMASK
 8000c06:	b672      	cpsid	i
 8000c08:	4e24      	ldr	r6, [pc, #144]	; (8000c9c <HW_TS_Stop+0xa0>)
 8000c0a:	4d25      	ldr	r5, [pc, #148]	; (8000ca0 <HW_TS_Stop+0xa4>)
 8000c0c:	2003      	movs	r0, #3
 8000c0e:	f000 fe6b 	bl	80018e8 <HAL_NVIC_DisableIRQ>
 8000c12:	f8d6 8000 	ldr.w	r8, [r6]
 8000c16:	f8d8 3000 	ldr.w	r3, [r8]
 8000c1a:	22ca      	movs	r2, #202	; 0xca
 8000c1c:	625a      	str	r2, [r3, #36]	; 0x24
 8000c1e:	2253      	movs	r2, #83	; 0x53
 8000c20:	625a      	str	r2, [r3, #36]	; 0x24
 8000c22:	2318      	movs	r3, #24
 8000c24:	fb03 5304 	mla	r3, r3, r4, r5
 8000c28:	7c1b      	ldrb	r3, [r3, #16]
 8000c2a:	2b02      	cmp	r3, #2
 8000c2c:	d125      	bne.n	8000c7a <HW_TS_Stop+0x7e>
 8000c2e:	2100      	movs	r1, #0
 8000c30:	4620      	mov	r0, r4
 8000c32:	f7ff fe67 	bl	8000904 <UnlinkTimer>
 8000c36:	782b      	ldrb	r3, [r5, #0]
 8000c38:	2b06      	cmp	r3, #6
 8000c3a:	b2da      	uxtb	r2, r3
 8000c3c:	d128      	bne.n	8000c90 <HW_TS_Stop+0x94>
 8000c3e:	4b19      	ldr	r3, [pc, #100]	; (8000ca4 <HW_TS_Stop+0xa8>)
 8000c40:	689a      	ldr	r2, [r3, #8]
 8000c42:	f8d8 3000 	ldr.w	r3, [r8]
 8000c46:	f412 6f80 	tst.w	r2, #1024	; 0x400
 8000c4a:	d003      	beq.n	8000c54 <HW_TS_Stop+0x58>
 8000c4c:	68da      	ldr	r2, [r3, #12]
 8000c4e:	f012 0f04 	tst.w	r2, #4
 8000c52:	e7fa      	b.n	8000c4a <HW_TS_Stop+0x4e>
 8000c54:	689a      	ldr	r2, [r3, #8]
 8000c56:	f422 6280 	bic.w	r2, r2, #1024	; 0x400
 8000c5a:	609a      	str	r2, [r3, #8]
 8000c5c:	68da      	ldr	r2, [r3, #12]
 8000c5e:	0752      	lsls	r2, r2, #29
 8000c60:	d5fc      	bpl.n	8000c5c <HW_TS_Stop+0x60>
 8000c62:	68da      	ldr	r2, [r3, #12]
 8000c64:	b2d2      	uxtb	r2, r2
 8000c66:	f462 6290 	orn	r2, r2, #1152	; 0x480
 8000c6a:	60da      	str	r2, [r3, #12]
 8000c6c:	4b0e      	ldr	r3, [pc, #56]	; (8000ca8 <HW_TS_Stop+0xac>)
 8000c6e:	f44f 2200 	mov.w	r2, #524288	; 0x80000
 8000c72:	60da      	str	r2, [r3, #12]
 8000c74:	2003      	movs	r0, #3
 8000c76:	f000 fe6f 	bl	8001958 <HAL_NVIC_ClearPendingIRQ>
 8000c7a:	6833      	ldr	r3, [r6, #0]
 8000c7c:	681b      	ldr	r3, [r3, #0]
 8000c7e:	22ff      	movs	r2, #255	; 0xff
 8000c80:	625a      	str	r2, [r3, #36]	; 0x24
 8000c82:	2003      	movs	r0, #3
 8000c84:	f000 fe22 	bl	80018cc <HAL_NVIC_EnableIRQ>
 8000c88:	f387 8810 	msr	PRIMASK, r7
 8000c8c:	e8bd 81f0 	ldmia.w	sp!, {r4, r5, r6, r7, r8, pc}
 8000c90:	786b      	ldrb	r3, [r5, #1]
 8000c92:	4293      	cmp	r3, r2
 8000c94:	d0f1      	beq.n	8000c7a <HW_TS_Stop+0x7e>
 8000c96:	f7ff fe93 	bl	80009c0 <RescheduleTimerList>
 8000c9a:	e7ee      	b.n	8000c7a <HW_TS_Stop+0x7e>
 8000c9c:	20000234 	.word	0x20000234
 8000ca0:	200000a4 	.word	0x200000a4
 8000ca4:	40002800 	.word	0x40002800
 8000ca8:	58000800 	.word	0x58000800

08000cac <HW_TS_Start>:
 8000cac:	e92d 47f0 	stmdb	sp!, {r4, r5, r6, r7, r8, r9, sl, lr}
 8000cb0:	4c4a      	ldr	r4, [pc, #296]	; (8000ddc <HW_TS_Start+0x130>)
 8000cb2:	2318      	movs	r3, #24
 8000cb4:	fb03 4300 	mla	r3, r3, r0, r4
 8000cb8:	4605      	mov	r5, r0
 8000cba:	7c1b      	ldrb	r3, [r3, #16]
 8000cbc:	2b02      	cmp	r3, #2
 8000cbe:	468a      	mov	sl, r1
 8000cc0:	d101      	bne.n	8000cc6 <HW_TS_Start+0x1a>
 8000cc2:	f7ff ff9b 	bl	8000bfc <HW_TS_Stop>
 8000cc6:	f3ef 8610 	mrs	r6, PRIMASK
 8000cca:	b672      	cpsid	i
 8000ccc:	f8df 8110 	ldr.w	r8, [pc, #272]	; 8000de0 <HW_TS_Start+0x134>
 8000cd0:	2003      	movs	r0, #3
 8000cd2:	f000 fe09 	bl	80018e8 <HAL_NVIC_DisableIRQ>
 8000cd6:	f8d8 3000 	ldr.w	r3, [r8]
 8000cda:	681b      	ldr	r3, [r3, #0]
 8000cdc:	22ca      	movs	r2, #202	; 0xca
 8000cde:	f04f 0918 	mov.w	r9, #24
 8000ce2:	625a      	str	r2, [r3, #36]	; 0x24
 8000ce4:	fb09 4705 	mla	r7, r9, r5, r4
 8000ce8:	2253      	movs	r2, #83	; 0x53
 8000cea:	625a      	str	r2, [r3, #36]	; 0x24
 8000cec:	2302      	movs	r3, #2
 8000cee:	743b      	strb	r3, [r7, #16]
 8000cf0:	f8c7 a00c 	str.w	sl, [r7, #12]
 8000cf4:	f8c7 a008 	str.w	sl, [r7, #8]
 8000cf8:	7823      	ldrb	r3, [r4, #0]
 8000cfa:	2b06      	cmp	r3, #6
 8000cfc:	b2da      	uxtb	r2, r3
 8000cfe:	d11b      	bne.n	8000d38 <HW_TS_Start+0x8c>
 8000d00:	7823      	ldrb	r3, [r4, #0]
 8000d02:	b2db      	uxtb	r3, r3
 8000d04:	7063      	strb	r3, [r4, #1]
 8000d06:	f04f 33ff 	mov.w	r3, #4294967295
 8000d0a:	7025      	strb	r5, [r4, #0]
 8000d0c:	2000      	movs	r0, #0
 8000d0e:	767a      	strb	r2, [r7, #25]
 8000d10:	f8c4 3094 	str.w	r3, [r4, #148]	; 0x94
 8000d14:	7823      	ldrb	r3, [r4, #0]
 8000d16:	7862      	ldrb	r2, [r4, #1]
 8000d18:	429a      	cmp	r2, r3
 8000d1a:	d057      	beq.n	8000dcc <HW_TS_Start+0x120>
 8000d1c:	f7ff fe50 	bl	80009c0 <RescheduleTimerList>
 8000d20:	f8d8 3000 	ldr.w	r3, [r8]
 8000d24:	681b      	ldr	r3, [r3, #0]
 8000d26:	22ff      	movs	r2, #255	; 0xff
 8000d28:	625a      	str	r2, [r3, #36]	; 0x24
 8000d2a:	2003      	movs	r0, #3
 8000d2c:	f000 fdce 	bl	80018cc <HAL_NVIC_EnableIRQ>
 8000d30:	f386 8810 	msr	PRIMASK, r6
 8000d34:	e8bd 87f0 	ldmia.w	sp!, {r4, r5, r6, r7, r8, r9, sl, pc}
 8000d38:	f7ff fe1a 	bl	8000970 <ReturnTimeElapsed>
 8000d3c:	68fb      	ldr	r3, [r7, #12]
 8000d3e:	4403      	add	r3, r0
 8000d40:	60fb      	str	r3, [r7, #12]
 8000d42:	68f9      	ldr	r1, [r7, #12]
 8000d44:	7823      	ldrb	r3, [r4, #0]
 8000d46:	fb09 4303 	mla	r3, r9, r3, r4
 8000d4a:	68db      	ldr	r3, [r3, #12]
 8000d4c:	4299      	cmp	r1, r3
 8000d4e:	d323      	bcc.n	8000d98 <HW_TS_Start+0xec>
 8000d50:	7822      	ldrb	r2, [r4, #0]
 8000d52:	b2d3      	uxtb	r3, r2
 8000d54:	fb09 4202 	mla	r2, r9, r2, r4
 8000d58:	7e52      	ldrb	r2, [r2, #25]
 8000d5a:	b2d2      	uxtb	r2, r2
 8000d5c:	2a06      	cmp	r2, #6
 8000d5e:	d004      	beq.n	8000d6a <HW_TS_Start+0xbe>
 8000d60:	fb09 4202 	mla	r2, r9, r2, r4
 8000d64:	68d2      	ldr	r2, [r2, #12]
 8000d66:	4291      	cmp	r1, r2
 8000d68:	d212      	bcs.n	8000d90 <HW_TS_Start+0xe4>
 8000d6a:	2218      	movs	r2, #24
 8000d6c:	fb02 4103 	mla	r1, r2, r3, r4
 8000d70:	7e49      	ldrb	r1, [r1, #25]
 8000d72:	b2cf      	uxtb	r7, r1
 8000d74:	2906      	cmp	r1, #6
 8000d76:	bf1c      	itt	ne
 8000d78:	fb02 4207 	mlane	r2, r2, r7, r4
 8000d7c:	7615      	strbne	r5, [r2, #24]
 8000d7e:	2218      	movs	r2, #24
 8000d80:	fb02 4105 	mla	r1, r2, r5, r4
 8000d84:	764f      	strb	r7, [r1, #25]
 8000d86:	760b      	strb	r3, [r1, #24]
 8000d88:	fb02 4303 	mla	r3, r2, r3, r4
 8000d8c:	765d      	strb	r5, [r3, #25]
 8000d8e:	e7c1      	b.n	8000d14 <HW_TS_Start+0x68>
 8000d90:	fb09 4303 	mla	r3, r9, r3, r4
 8000d94:	7e5a      	ldrb	r2, [r3, #25]
 8000d96:	e7dc      	b.n	8000d52 <HW_TS_Start+0xa6>
 8000d98:	7823      	ldrb	r3, [r4, #0]
 8000d9a:	7822      	ldrb	r2, [r4, #0]
 8000d9c:	4293      	cmp	r3, r2
 8000d9e:	b2d9      	uxtb	r1, r3
 8000da0:	fb09 f303 	mul.w	r3, r9, r3
 8000da4:	d00f      	beq.n	8000dc6 <HW_TS_Start+0x11a>
 8000da6:	4423      	add	r3, r4
 8000da8:	7e1a      	ldrb	r2, [r3, #24]
 8000daa:	fa5f fc82 	uxtb.w	ip, r2
 8000dae:	fb09 4202 	mla	r2, r9, r2, r4
 8000db2:	7655      	strb	r5, [r2, #25]
 8000db4:	7679      	strb	r1, [r7, #25]
 8000db6:	f887 c018 	strb.w	ip, [r7, #24]
 8000dba:	761d      	strb	r5, [r3, #24]
 8000dbc:	7823      	ldrb	r3, [r4, #0]
 8000dbe:	b2db      	uxtb	r3, r3
 8000dc0:	7063      	strb	r3, [r4, #1]
 8000dc2:	7025      	strb	r5, [r4, #0]
 8000dc4:	e7a6      	b.n	8000d14 <HW_TS_Start+0x68>
 8000dc6:	7679      	strb	r1, [r7, #25]
 8000dc8:	4423      	add	r3, r4
 8000dca:	e7f6      	b.n	8000dba <HW_TS_Start+0x10e>
 8000dcc:	2318      	movs	r3, #24
 8000dce:	fb03 4405 	mla	r4, r3, r5, r4
 8000dd2:	68e3      	ldr	r3, [r4, #12]
 8000dd4:	1a18      	subs	r0, r3, r0
 8000dd6:	60e0      	str	r0, [r4, #12]
 8000dd8:	e7a2      	b.n	8000d20 <HW_TS_Start+0x74>
 8000dda:	bf00      	nop
 8000ddc:	200000a4 	.word	0x200000a4
 8000de0:	20000234 	.word	0x20000234

08000de4 <HW_TS_RTC_Int_AppNot>:
 8000de4:	4710      	bx	r2
	...

08000de8 <HW_TS_RTC_Wakeup_Handler>:
 8000de8:	e92d 4ff8 	stmdb	sp!, {r3, r4, r5, r6, r7, r8, r9, sl, fp, lr}
 8000dec:	f3ef 8610 	mrs	r6, PRIMASK
 8000df0:	b672      	cpsid	i
 8000df2:	4d2a      	ldr	r5, [pc, #168]	; (8000e9c <HW_TS_RTC_Wakeup_Handler+0xb4>)
 8000df4:	492a      	ldr	r1, [pc, #168]	; (8000ea0 <HW_TS_RTC_Wakeup_Handler+0xb8>)
 8000df6:	682b      	ldr	r3, [r5, #0]
 8000df8:	681b      	ldr	r3, [r3, #0]
 8000dfa:	f04f 09ca 	mov.w	r9, #202	; 0xca
 8000dfe:	f04f 0853 	mov.w	r8, #83	; 0x53
 8000e02:	f8c3 9024 	str.w	r9, [r3, #36]	; 0x24
 8000e06:	f8c3 8024 	str.w	r8, [r3, #36]	; 0x24
 8000e0a:	689a      	ldr	r2, [r3, #8]
 8000e0c:	f422 6280 	bic.w	r2, r2, #1024	; 0x400
 8000e10:	609a      	str	r2, [r3, #8]
 8000e12:	780c      	ldrb	r4, [r1, #0]
 8000e14:	2218      	movs	r2, #24
 8000e16:	b2e7      	uxtb	r7, r4
 8000e18:	fb02 1404 	mla	r4, r2, r4, r1
 8000e1c:	7c22      	ldrb	r2, [r4, #16]
 8000e1e:	2a02      	cmp	r2, #2
 8000e20:	d12f      	bne.n	8000e82 <HW_TS_RTC_Wakeup_Handler+0x9a>
 8000e22:	f8d4 b004 	ldr.w	fp, [r4, #4]
 8000e26:	f8d4 a014 	ldr.w	sl, [r4, #20]
 8000e2a:	f891 3098 	ldrb.w	r3, [r1, #152]	; 0x98
 8000e2e:	b31b      	cbz	r3, 8000e78 <HW_TS_RTC_Wakeup_Handler+0x90>
 8000e30:	7c63      	ldrb	r3, [r4, #17]
 8000e32:	2b01      	cmp	r3, #1
 8000e34:	b2d9      	uxtb	r1, r3
 8000e36:	d119      	bne.n	8000e6c <HW_TS_RTC_Wakeup_Handler+0x84>
 8000e38:	4638      	mov	r0, r7
 8000e3a:	f7ff fd63 	bl	8000904 <UnlinkTimer>
 8000e3e:	f386 8810 	msr	PRIMASK, r6
 8000e42:	68a1      	ldr	r1, [r4, #8]
 8000e44:	4638      	mov	r0, r7
 8000e46:	f7ff ff31 	bl	8000cac <HW_TS_Start>
 8000e4a:	682b      	ldr	r3, [r5, #0]
 8000e4c:	681b      	ldr	r3, [r3, #0]
 8000e4e:	465a      	mov	r2, fp
 8000e50:	f8c3 9024 	str.w	r9, [r3, #36]	; 0x24
 8000e54:	4639      	mov	r1, r7
 8000e56:	f8c3 8024 	str.w	r8, [r3, #36]	; 0x24
 8000e5a:	4650      	mov	r0, sl
 8000e5c:	f7ff ffc2 	bl	8000de4 <HW_TS_RTC_Int_AppNot>
 8000e60:	682b      	ldr	r3, [r5, #0]
 8000e62:	681b      	ldr	r3, [r3, #0]
 8000e64:	22ff      	movs	r2, #255	; 0xff
 8000e66:	625a      	str	r2, [r3, #36]	; 0x24
 8000e68:	e8bd 8ff8 	ldmia.w	sp!, {r3, r4, r5, r6, r7, r8, r9, sl, fp, pc}
 8000e6c:	f386 8810 	msr	PRIMASK, r6
 8000e70:	4638      	mov	r0, r7
 8000e72:	f7ff fec3 	bl	8000bfc <HW_TS_Stop>
 8000e76:	e7e8      	b.n	8000e4a <HW_TS_RTC_Wakeup_Handler+0x62>
 8000e78:	f7ff fda2 	bl	80009c0 <RescheduleTimerList>
 8000e7c:	f386 8810 	msr	PRIMASK, r6
 8000e80:	e7ee      	b.n	8000e60 <HW_TS_RTC_Wakeup_Handler+0x78>
 8000e82:	68da      	ldr	r2, [r3, #12]
 8000e84:	0752      	lsls	r2, r2, #29
 8000e86:	d5fc      	bpl.n	8000e82 <HW_TS_RTC_Wakeup_Handler+0x9a>
 8000e88:	68da      	ldr	r2, [r3, #12]
 8000e8a:	b2d2      	uxtb	r2, r2
 8000e8c:	f462 6290 	orn	r2, r2, #1152	; 0x480
 8000e90:	60da      	str	r2, [r3, #12]
 8000e92:	4b04      	ldr	r3, [pc, #16]	; (8000ea4 <HW_TS_RTC_Wakeup_Handler+0xbc>)
 8000e94:	f44f 2200 	mov.w	r2, #524288	; 0x80000
 8000e98:	60da      	str	r2, [r3, #12]
 8000e9a:	e7ef      	b.n	8000e7c <HW_TS_RTC_Wakeup_Handler+0x94>
 8000e9c:	20000234 	.word	0x20000234
 8000ea0:	200000a4 	.word	0x200000a4
 8000ea4:	58000800 	.word	0x58000800

08000ea8 <LL_AHB2_GRP1_EnableClock>:
 8000ea8:	f04f 43b0 	mov.w	r3, #1476395008	; 0x58000000
 8000eac:	b082      	sub	sp, #8
 8000eae:	6cda      	ldr	r2, [r3, #76]	; 0x4c
 8000eb0:	4302      	orrs	r2, r0
 8000eb2:	64da      	str	r2, [r3, #76]	; 0x4c
 8000eb4:	6cdb      	ldr	r3, [r3, #76]	; 0x4c
 8000eb6:	4018      	ands	r0, r3
 8000eb8:	9001      	str	r0, [sp, #4]
 8000eba:	9b01      	ldr	r3, [sp, #4]
 8000ebc:	b002      	add	sp, #8
 8000ebe:	4770      	bx	lr

08000ec0 <loop>:
 8000ec0:	b530      	push	{r4, r5, lr}
 8000ec2:	483a      	ldr	r0, [pc, #232]	; (8000fac <loop+0xec>)
 8000ec4:	b085      	sub	sp, #20
 8000ec6:	2110      	movs	r1, #16
 8000ec8:	f000 fe0c 	bl	8001ae4 <HAL_GPIO_ReadPin>
 8000ecc:	4604      	mov	r4, r0
 8000ece:	2800      	cmp	r0, #0
 8000ed0:	d169      	bne.n	8000fa6 <loop+0xe6>
 8000ed2:	2201      	movs	r2, #1
 8000ed4:	4611      	mov	r1, r2
 8000ed6:	4836      	ldr	r0, [pc, #216]	; (8000fb0 <loop+0xf0>)
 8000ed8:	f000 fe0a 	bl	8001af0 <HAL_GPIO_WritePin>
 8000edc:	2501      	movs	r5, #1
 8000ede:	2315      	movs	r3, #21
 8000ee0:	4a34      	ldr	r2, [pc, #208]	; (8000fb4 <loop+0xf4>)
 8000ee2:	9402      	str	r4, [sp, #8]
 8000ee4:	2114      	movs	r1, #20
 8000ee6:	e9cd 3500 	strd	r3, r5, [sp]
 8000eea:	2007      	movs	r0, #7
 8000eec:	2373      	movs	r3, #115	; 0x73
 8000eee:	f7ff fb21 	bl	8000534 <drawBitmap>
 8000ef2:	2096      	movs	r0, #150	; 0x96
 8000ef4:	f7ff fcca 	bl	800088c <HAL_Delay>
 8000ef8:	4620      	mov	r0, r4
 8000efa:	f7ff fbbf 	bl	800067c <clearScreen>
 8000efe:	f000 fa01 	bl	8001304 <ssd1306_UpdateScreen>
 8000f02:	462a      	mov	r2, r5
 8000f04:	4620      	mov	r0, r4
 8000f06:	4b2c      	ldr	r3, [pc, #176]	; (8000fb8 <loop+0xf8>)
 8000f08:	2102      	movs	r1, #2
 8000f0a:	f7ff fb67 	bl	80005dc <writeLargeFont>
 8000f0e:	462a      	mov	r2, r5
 8000f10:	4b2a      	ldr	r3, [pc, #168]	; (8000fbc <loop+0xfc>)
 8000f12:	2102      	movs	r1, #2
 8000f14:	204b      	movs	r0, #75	; 0x4b
 8000f16:	f7ff fb75 	bl	8000604 <writeMedFont>
 8000f1a:	462a      	mov	r2, r5
 8000f1c:	4620      	mov	r0, r4
 8000f1e:	4b28      	ldr	r3, [pc, #160]	; (8000fc0 <loop+0x100>)
 8000f20:	211e      	movs	r1, #30
 8000f22:	f7ff fb83 	bl	800062c <writeSmFont>
 8000f26:	462a      	mov	r2, r5
 8000f28:	4b26      	ldr	r3, [pc, #152]	; (8000fc4 <loop+0x104>)
 8000f2a:	212d      	movs	r1, #45	; 0x2d
 8000f2c:	2032      	movs	r0, #50	; 0x32
 8000f2e:	f7ff fb91 	bl	8000654 <writeTinyFont>
 8000f32:	2096      	movs	r0, #150	; 0x96
 8000f34:	f7ff fcaa 	bl	800088c <HAL_Delay>
 8000f38:	4628      	mov	r0, r5
 8000f3a:	f000 f9d3 	bl	80012e4 <ssd1306_Fill>
 8000f3e:	f000 f9e1 	bl	8001304 <ssd1306_UpdateScreen>
 8000f42:	2102      	movs	r1, #2
 8000f44:	200a      	movs	r0, #10
 8000f46:	f000 fa87 	bl	8001458 <ssd1306_SetCursor>
 8000f4a:	4a1f      	ldr	r2, [pc, #124]	; (8000fc8 <loop+0x108>)
 8000f4c:	481a      	ldr	r0, [pc, #104]	; (8000fb8 <loop+0xf8>)
 8000f4e:	ca06      	ldmia	r2, {r1, r2}
 8000f50:	4623      	mov	r3, r4
 8000f52:	f000 fa6b 	bl	800142c <ssd1306_WriteString>
 8000f56:	2102      	movs	r1, #2
 8000f58:	2055      	movs	r0, #85	; 0x55
 8000f5a:	f000 fa7d 	bl	8001458 <ssd1306_SetCursor>
 8000f5e:	4a1b      	ldr	r2, [pc, #108]	; (8000fcc <loop+0x10c>)
 8000f60:	4816      	ldr	r0, [pc, #88]	; (8000fbc <loop+0xfc>)
 8000f62:	ca06      	ldmia	r2, {r1, r2}
 8000f64:	4623      	mov	r3, r4
 8000f66:	f000 fa61 	bl	800142c <ssd1306_WriteString>
 8000f6a:	211e      	movs	r1, #30
 8000f6c:	200a      	movs	r0, #10
 8000f6e:	f000 fa73 	bl	8001458 <ssd1306_SetCursor>
 8000f72:	4a17      	ldr	r2, [pc, #92]	; (8000fd0 <loop+0x110>)
 8000f74:	4812      	ldr	r0, [pc, #72]	; (8000fc0 <loop+0x100>)
 8000f76:	ca06      	ldmia	r2, {r1, r2}
 8000f78:	4623      	mov	r3, r4
 8000f7a:	f000 fa57 	bl	800142c <ssd1306_WriteString>
 8000f7e:	212d      	movs	r1, #45	; 0x2d
 8000f80:	2028      	movs	r0, #40	; 0x28
 8000f82:	f000 fa69 	bl	8001458 <ssd1306_SetCursor>
 8000f86:	4a13      	ldr	r2, [pc, #76]	; (8000fd4 <loop+0x114>)
 8000f88:	480e      	ldr	r0, [pc, #56]	; (8000fc4 <loop+0x104>)
 8000f8a:	ca06      	ldmia	r2, {r1, r2}
 8000f8c:	4623      	mov	r3, r4
 8000f8e:	f000 fa4d 	bl	800142c <ssd1306_WriteString>
 8000f92:	f000 f9b7 	bl	8001304 <ssd1306_UpdateScreen>
 8000f96:	4806      	ldr	r0, [pc, #24]	; (8000fb0 <loop+0xf0>)
 8000f98:	4622      	mov	r2, r4
 8000f9a:	4629      	mov	r1, r5
 8000f9c:	b005      	add	sp, #20
 8000f9e:	e8bd 4030 	ldmia.w	sp!, {r4, r5, lr}
 8000fa2:	f000 bda5 	b.w	8001af0 <HAL_GPIO_WritePin>
 8000fa6:	b005      	add	sp, #20
 8000fa8:	bd30      	pop	{r4, r5, pc}
 8000faa:	bf00      	nop
 8000fac:	48000800 	.word	0x48000800
 8000fb0:	48000400 	.word	0x48000400
 8000fb4:	08005a71 	.word	0x08005a71
 8000fb8:	08005a39 	.word	0x08005a39
 8000fbc:	08005a3e 	.word	0x08005a3e
 8000fc0:	08005a42 	.word	0x08005a42
 8000fc4:	08005a52 	.word	0x08005a52
 8000fc8:	2000000c 	.word	0x2000000c
 8000fcc:	20000004 	.word	0x20000004
 8000fd0:	2000001c 	.word	0x2000001c
 8000fd4:	20000014 	.word	0x20000014

08000fd8 <SystemClock_Config>:
 8000fd8:	b510      	push	{r4, lr}
 8000fda:	b09a      	sub	sp, #104	; 0x68
 8000fdc:	2248      	movs	r2, #72	; 0x48
 8000fde:	2100      	movs	r1, #0
 8000fe0:	a808      	add	r0, sp, #32
 8000fe2:	f003 fff9 	bl	8004fd8 <memset>
 8000fe6:	221c      	movs	r2, #28
 8000fe8:	2100      	movs	r1, #0
 8000fea:	a801      	add	r0, sp, #4
 8000fec:	f003 fff4 	bl	8004fd8 <memset>
 8000ff0:	f001 f860 	bl	80020b4 <HAL_PWR_EnableBkUpAccess>
 8000ff4:	f04f 42b0 	mov.w	r2, #1476395008	; 0x58000000
 8000ff8:	2401      	movs	r4, #1
 8000ffa:	f8d2 3090 	ldr.w	r3, [r2, #144]	; 0x90
 8000ffe:	f023 0318 	bic.w	r3, r3, #24
 8001002:	f8c2 3090 	str.w	r3, [r2, #144]	; 0x90
 8001006:	f8d2 3400 	ldr.w	r3, [r2, #1024]	; 0x400
 800100a:	f423 63c0 	bic.w	r3, r3, #1536	; 0x600
 800100e:	f443 7300 	orr.w	r3, r3, #512	; 0x200
 8001012:	f8c2 3400 	str.w	r3, [r2, #1024]	; 0x400
 8001016:	f8d2 3400 	ldr.w	r3, [r2, #1024]	; 0x400
 800101a:	940f      	str	r4, [sp, #60]	; 0x3c
 800101c:	f403 63c0 	and.w	r3, r3, #1536	; 0x600
 8001020:	9300      	str	r3, [sp, #0]
 8001022:	2227      	movs	r2, #39	; 0x27
 8001024:	9b00      	ldr	r3, [sp, #0]
 8001026:	f44f 3380 	mov.w	r3, #65536	; 0x10000
 800102a:	e9cd 2308 	strd	r2, r3, [sp, #32]
 800102e:	f44f 7380 	mov.w	r3, #256	; 0x100
 8001032:	e9cd 430a 	strd	r4, r3, [sp, #40]	; 0x28
 8001036:	2340      	movs	r3, #64	; 0x40
 8001038:	930c      	str	r3, [sp, #48]	; 0x30
 800103a:	22a0      	movs	r2, #160	; 0xa0
 800103c:	2300      	movs	r3, #0
 800103e:	a808      	add	r0, sp, #32
 8001040:	e9cd 3210 	strd	r3, r2, [sp, #64]	; 0x40
 8001044:	9313      	str	r3, [sp, #76]	; 0x4c
 8001046:	f001 f945 	bl	80022d4 <HAL_RCC_OscConfig>
 800104a:	b108      	cbz	r0, 8001050 <SystemClock_Config+0x78>
 800104c:	b672      	cpsid	i
 800104e:	e7fe      	b.n	800104e <SystemClock_Config+0x76>
 8001050:	236f      	movs	r3, #111	; 0x6f
 8001052:	e9cd 3001 	strd	r3, r0, [sp, #4]
 8001056:	e9cd 0003 	strd	r0, r0, [sp, #12]
 800105a:	e9cd 0005 	strd	r0, r0, [sp, #20]
 800105e:	9007      	str	r0, [sp, #28]
 8001060:	4621      	mov	r1, r4
 8001062:	a801      	add	r0, sp, #4
 8001064:	f001 fc0a 	bl	800287c <HAL_RCC_ClockConfig>
 8001068:	b108      	cbz	r0, 800106e <SystemClock_Config+0x96>
 800106a:	b672      	cpsid	i
 800106c:	e7fe      	b.n	800106c <SystemClock_Config+0x94>
 800106e:	b01a      	add	sp, #104	; 0x68
 8001070:	bd10      	pop	{r4, pc}

08001072 <PeriphCommonClock_Config>:
 8001072:	b500      	push	{lr}
 8001074:	b095      	sub	sp, #84	; 0x54
 8001076:	224c      	movs	r2, #76	; 0x4c
 8001078:	2100      	movs	r1, #0
 800107a:	a801      	add	r0, sp, #4
 800107c:	f003 ffac 	bl	8004fd8 <memset>
 8001080:	f44f 5340 	mov.w	r3, #12288	; 0x3000
 8001084:	9300      	str	r3, [sp, #0]
 8001086:	4668      	mov	r0, sp
 8001088:	f44f 4380 	mov.w	r3, #16384	; 0x4000
 800108c:	9311      	str	r3, [sp, #68]	; 0x44
 800108e:	f001 fd3c 	bl	8002b0a <HAL_RCCEx_PeriphCLKConfig>
 8001092:	b108      	cbz	r0, 8001098 <PeriphCommonClock_Config+0x26>
 8001094:	b672      	cpsid	i
 8001096:	e7fe      	b.n	8001096 <PeriphCommonClock_Config+0x24>
 8001098:	b015      	add	sp, #84	; 0x54
 800109a:	f85d fb04 	ldr.w	pc, [sp], #4
	...

080010a0 <UART_Transmit>:
 80010a0:	b508      	push	{r3, lr}
 80010a2:	460a      	mov	r2, r1
 80010a4:	f64f 73ff 	movw	r3, #65535	; 0xffff
 80010a8:	4601      	mov	r1, r0
 80010aa:	4803      	ldr	r0, [pc, #12]	; (80010b8 <UART_Transmit+0x18>)
 80010ac:	f002 f9aa 	bl	8003404 <HAL_UART_Transmit>
 80010b0:	fab0 f080 	clz	r0, r0
 80010b4:	0940      	lsrs	r0, r0, #5
 80010b6:	bd08      	pop	{r3, pc}
 80010b8:	200002e4 	.word	0x200002e4

080010bc <main>:
 80010bc:	b500      	push	{lr}
 80010be:	b08f      	sub	sp, #60	; 0x3c
 80010c0:	2100      	movs	r1, #0
 80010c2:	221f      	movs	r2, #31
 80010c4:	a806      	add	r0, sp, #24
 80010c6:	9105      	str	r1, [sp, #20]
 80010c8:	f003 ff86 	bl	8004fd8 <memset>
 80010cc:	f7ff fef8 	bl	8000ec0 <loop>
 80010d0:	f000 fb84 	bl	80017dc <HAL_Init>
 80010d4:	f7ff fb28 	bl	8000728 <MX_APPE_Config>
 80010d8:	f7ff ff7e 	bl	8000fd8 <SystemClock_Config>
 80010dc:	f7ff ffc9 	bl	8001072 <PeriphCommonClock_Config>
 80010e0:	485e      	ldr	r0, [pc, #376]	; (800125c <main+0x1a0>)
 80010e2:	4b5f      	ldr	r3, [pc, #380]	; (8001260 <main+0x1a4>)
 80010e4:	6003      	str	r3, [r0, #0]
 80010e6:	f000 ffc3 	bl	8002070 <HAL_IPCC_Init>
 80010ea:	4604      	mov	r4, r0
 80010ec:	b108      	cbz	r0, 80010f2 <main+0x36>
 80010ee:	b672      	cpsid	i
 80010f0:	e7fe      	b.n	80010f0 <main+0x34>
 80010f2:	2214      	movs	r2, #20
 80010f4:	4601      	mov	r1, r0
 80010f6:	4668      	mov	r0, sp
 80010f8:	f003 ff6e 	bl	8004fd8 <memset>
 80010fc:	2004      	movs	r0, #4
 80010fe:	f7ff fed3 	bl	8000ea8 <LL_AHB2_GRP1_EnableClock>
 8001102:	2002      	movs	r0, #2
 8001104:	f7ff fed0 	bl	8000ea8 <LL_AHB2_GRP1_EnableClock>
 8001108:	2001      	movs	r0, #1
 800110a:	f7ff fecd 	bl	8000ea8 <LL_AHB2_GRP1_EnableClock>
 800110e:	2008      	movs	r0, #8
 8001110:	f7ff feca 	bl	8000ea8 <LL_AHB2_GRP1_EnableClock>
 8001114:	2123      	movs	r1, #35	; 0x23
 8001116:	4622      	mov	r2, r4
 8001118:	4852      	ldr	r0, [pc, #328]	; (8001264 <main+0x1a8>)
 800111a:	4d53      	ldr	r5, [pc, #332]	; (8001268 <main+0x1ac>)
 800111c:	f000 fce8 	bl	8001af0 <HAL_GPIO_WritePin>
 8001120:	2601      	movs	r6, #1
 8001122:	2310      	movs	r3, #16
 8001124:	4851      	ldr	r0, [pc, #324]	; (800126c <main+0x1b0>)
 8001126:	9602      	str	r6, [sp, #8]
 8001128:	4669      	mov	r1, sp
 800112a:	e9cd 3400 	strd	r3, r4, [sp]
 800112e:	f000 fc23 	bl	8001978 <HAL_GPIO_Init>
 8001132:	2323      	movs	r3, #35	; 0x23
 8001134:	484b      	ldr	r0, [pc, #300]	; (8001264 <main+0x1a8>)
 8001136:	4669      	mov	r1, sp
 8001138:	e9cd 3600 	strd	r3, r6, [sp]
 800113c:	e9cd 4402 	strd	r4, r4, [sp, #8]
 8001140:	f000 fc1a 	bl	8001978 <HAL_GPIO_Init>
 8001144:	f44f 50c0 	mov.w	r0, #6144	; 0x1800
 8001148:	2302      	movs	r3, #2
 800114a:	e9cd 0300 	strd	r0, r3, [sp]
 800114e:	4669      	mov	r1, sp
 8001150:	230a      	movs	r3, #10
 8001152:	f04f 4090 	mov.w	r0, #1207959552	; 0x48000000
 8001156:	9304      	str	r3, [sp, #16]
 8001158:	e9cd 4402 	strd	r4, r4, [sp, #8]
 800115c:	f000 fc0c 	bl	8001978 <HAL_GPIO_Init>
 8001160:	2303      	movs	r3, #3
 8001162:	4843      	ldr	r0, [pc, #268]	; (8001270 <main+0x1b4>)
 8001164:	9402      	str	r4, [sp, #8]
 8001166:	4669      	mov	r1, sp
 8001168:	e9cd 3400 	strd	r3, r4, [sp]
 800116c:	f000 fc04 	bl	8001978 <HAL_GPIO_Init>
 8001170:	4b40      	ldr	r3, [pc, #256]	; (8001274 <main+0x1b8>)
 8001172:	612c      	str	r4, [r5, #16]
 8001174:	e9c5 3400 	strd	r3, r4, [r5]
 8001178:	f04f 0c0f 	mov.w	ip, #15
 800117c:	f647 73ff 	movw	r3, #32767	; 0x7fff
 8001180:	4628      	mov	r0, r5
 8001182:	e9c5 c302 	strd	ip, r3, [r5, #8]
 8001186:	e9c5 4406 	strd	r4, r4, [r5, #24]
 800118a:	616c      	str	r4, [r5, #20]
 800118c:	f001 feb4 	bl	8002ef8 <HAL_RTC_Init>
 8001190:	4602      	mov	r2, r0
 8001192:	b108      	cbz	r0, 8001198 <main+0xdc>
 8001194:	b672      	cpsid	i
 8001196:	e7fe      	b.n	8001196 <main+0xda>
 8001198:	4601      	mov	r1, r0
 800119a:	4628      	mov	r0, r5
 800119c:	f001 ff08 	bl	8002fb0 <HAL_RTCEx_SetWakeUpTimer_IT>
 80011a0:	b108      	cbz	r0, 80011a6 <main+0xea>
 80011a2:	b672      	cpsid	i
 80011a4:	e7fe      	b.n	80011a4 <main+0xe8>
 80011a6:	4c34      	ldr	r4, [pc, #208]	; (8001278 <main+0x1bc>)
 80011a8:	4934      	ldr	r1, [pc, #208]	; (800127c <main+0x1c0>)
 80011aa:	6120      	str	r0, [r4, #16]
 80011ac:	f44f 33e1 	mov.w	r3, #115200	; 0x1c200
 80011b0:	e9c4 1300 	strd	r1, r3, [r4]
 80011b4:	230c      	movs	r3, #12
 80011b6:	e9c4 0002 	strd	r0, r0, [r4, #8]
 80011ba:	e9c4 3005 	strd	r3, r0, [r4, #20]
 80011be:	e9c4 0007 	strd	r0, r0, [r4, #28]
 80011c2:	e9c4 0009 	strd	r0, r0, [r4, #36]	; 0x24
 80011c6:	4620      	mov	r0, r4
 80011c8:	f002 f9ae 	bl	8003528 <HAL_UART_Init>
 80011cc:	4601      	mov	r1, r0
 80011ce:	b108      	cbz	r0, 80011d4 <main+0x118>
 80011d0:	b672      	cpsid	i
 80011d2:	e7fe      	b.n	80011d2 <main+0x116>
 80011d4:	4620      	mov	r0, r4
 80011d6:	f002 fa14 	bl	8003602 <HAL_UARTEx_SetTxFifoThreshold>
 80011da:	4601      	mov	r1, r0
 80011dc:	b108      	cbz	r0, 80011e2 <main+0x126>
 80011de:	b672      	cpsid	i
 80011e0:	e7fe      	b.n	80011e0 <main+0x124>
 80011e2:	4620      	mov	r0, r4
 80011e4:	f002 fa31 	bl	800364a <HAL_UARTEx_SetRxFifoThreshold>
 80011e8:	b108      	cbz	r0, 80011ee <main+0x132>
 80011ea:	b672      	cpsid	i
 80011ec:	e7fe      	b.n	80011ec <main+0x130>
 80011ee:	4620      	mov	r0, r4
 80011f0:	f002 f9ec 	bl	80035cc <HAL_UARTEx_DisableFifoMode>
 80011f4:	b108      	cbz	r0, 80011fa <main+0x13e>
 80011f6:	b672      	cpsid	i
 80011f8:	e7fe      	b.n	80011f8 <main+0x13c>
 80011fa:	4c21      	ldr	r4, [pc, #132]	; (8001280 <main+0x1c4>)
 80011fc:	4a21      	ldr	r2, [pc, #132]	; (8001284 <main+0x1c8>)
 80011fe:	4b22      	ldr	r3, [pc, #136]	; (8001288 <main+0x1cc>)
 8001200:	6220      	str	r0, [r4, #32]
 8001202:	e9c4 0602 	strd	r0, r6, [r4, #8]
 8001206:	e9c4 0004 	strd	r0, r0, [r4, #16]
 800120a:	e9c4 0006 	strd	r0, r0, [r4, #24]
 800120e:	4620      	mov	r0, r4
 8001210:	e9c4 2300 	strd	r2, r3, [r4]
 8001214:	f000 fdc9 	bl	8001daa <HAL_I2C_Init>
 8001218:	4601      	mov	r1, r0
 800121a:	b108      	cbz	r0, 8001220 <main+0x164>
 800121c:	b672      	cpsid	i
 800121e:	e7fe      	b.n	800121e <main+0x162>
 8001220:	4620      	mov	r0, r4
 8001222:	f000 fec9 	bl	8001fb8 <HAL_I2CEx_ConfigAnalogFilter>
 8001226:	4601      	mov	r1, r0
 8001228:	b108      	cbz	r0, 800122e <main+0x172>
 800122a:	b672      	cpsid	i
 800122c:	e7fe      	b.n	800122c <main+0x170>
 800122e:	4620      	mov	r0, r4
 8001230:	f000 fee8 	bl	8002004 <HAL_I2CEx_ConfigDigitalFilter>
 8001234:	b108      	cbz	r0, 800123a <main+0x17e>
 8001236:	b672      	cpsid	i
 8001238:	e7fe      	b.n	8001238 <main+0x17c>
 800123a:	f7ff fad3 	bl	80007e4 <MX_APPE_Init>
 800123e:	4913      	ldr	r1, [pc, #76]	; (800128c <main+0x1d0>)
 8001240:	a805      	add	r0, sp, #20
 8001242:	f003 fef1 	bl	8005028 <strcpy>
 8001246:	a805      	add	r0, sp, #20
 8001248:	f7fe ff9a 	bl	8000180 <strlen>
 800124c:	b281      	uxth	r1, r0
 800124e:	a805      	add	r0, sp, #20
 8001250:	f7ff ff26 	bl	80010a0 <UART_Transmit>
 8001254:	f7ff fb34 	bl	80008c0 <MX_APPE_Process>
 8001258:	e7fc      	b.n	8001254 <main+0x198>
 800125a:	bf00      	nop
 800125c:	20000284 	.word	0x20000284
 8001260:	58000c00 	.word	0x58000c00
 8001264:	48000400 	.word	0x48000400
 8001268:	200002c0 	.word	0x200002c0
 800126c:	48000800 	.word	0x48000800
 8001270:	48000c00 	.word	0x48000c00
 8001274:	40002800 	.word	0x40002800
 8001278:	200002e4 	.word	0x200002e4
 800127c:	40013800 	.word	0x40013800
 8001280:	20000238 	.word	0x20000238
 8001284:	40005400 	.word	0x40005400
 8001288:	00707cbb 	.word	0x00707cbb
 800128c:	08005a5e 	.word	0x08005a5e

08001290 <Error_Handler>:
 8001290:	b672      	cpsid	i
 8001292:	e7fe      	b.n	8001292 <Error_Handler+0x2>

08001294 <ssd1306_WriteCommand>:
 8001294:	b57f      	push	{r0, r1, r2, r3, r4, r5, r6, lr}
 8001296:	2301      	movs	r3, #1
 8001298:	f04f 32ff 	mov.w	r2, #4294967295
 800129c:	e9cd 3201 	strd	r3, r2, [sp, #4]
 80012a0:	f10d 0217 	add.w	r2, sp, #23
 80012a4:	f88d 0017 	strb.w	r0, [sp, #23]
 80012a8:	9200      	str	r2, [sp, #0]
 80012aa:	2178      	movs	r1, #120	; 0x78
 80012ac:	2200      	movs	r2, #0
 80012ae:	4803      	ldr	r0, [pc, #12]	; (80012bc <ssd1306_WriteCommand+0x28>)
 80012b0:	f000 fdcc 	bl	8001e4c <HAL_I2C_Mem_Write>
 80012b4:	b007      	add	sp, #28
 80012b6:	f85d fb04 	ldr.w	pc, [sp], #4
 80012ba:	bf00      	nop
 80012bc:	20000238 	.word	0x20000238

080012c0 <ssd1306_WriteData>:
 80012c0:	b51f      	push	{r0, r1, r2, r3, r4, lr}
 80012c2:	f04f 33ff 	mov.w	r3, #4294967295
 80012c6:	b289      	uxth	r1, r1
 80012c8:	e9cd 0100 	strd	r0, r1, [sp]
 80012cc:	9302      	str	r3, [sp, #8]
 80012ce:	2240      	movs	r2, #64	; 0x40
 80012d0:	2301      	movs	r3, #1
 80012d2:	2178      	movs	r1, #120	; 0x78
 80012d4:	4802      	ldr	r0, [pc, #8]	; (80012e0 <ssd1306_WriteData+0x20>)
 80012d6:	f000 fdb9 	bl	8001e4c <HAL_I2C_Mem_Write>
 80012da:	b005      	add	sp, #20
 80012dc:	f85d fb04 	ldr.w	pc, [sp], #4
 80012e0:	20000238 	.word	0x20000238

080012e4 <ssd1306_Fill>:
 80012e4:	4906      	ldr	r1, [pc, #24]	; (8001300 <ssd1306_Fill+0x1c>)
 80012e6:	2300      	movs	r3, #0
 80012e8:	1e02      	subs	r2, r0, #0
 80012ea:	bf18      	it	ne
 80012ec:	2201      	movne	r2, #1
 80012ee:	3301      	adds	r3, #1
 80012f0:	4252      	negs	r2, r2
 80012f2:	f5b3 6f80 	cmp.w	r3, #1024	; 0x400
 80012f6:	f801 2b01 	strb.w	r2, [r1], #1
 80012fa:	d1f5      	bne.n	80012e8 <ssd1306_Fill+0x4>
 80012fc:	4770      	bx	lr
 80012fe:	bf00      	nop
 8001300:	2000037c 	.word	0x2000037c

08001304 <ssd1306_UpdateScreen>:
 8001304:	b538      	push	{r3, r4, r5, lr}
 8001306:	4d0b      	ldr	r5, [pc, #44]	; (8001334 <ssd1306_UpdateScreen+0x30>)
 8001308:	24b0      	movs	r4, #176	; 0xb0
 800130a:	4620      	mov	r0, r4
 800130c:	f7ff ffc2 	bl	8001294 <ssd1306_WriteCommand>
 8001310:	2000      	movs	r0, #0
 8001312:	f7ff ffbf 	bl	8001294 <ssd1306_WriteCommand>
 8001316:	3401      	adds	r4, #1
 8001318:	2010      	movs	r0, #16
 800131a:	f7ff ffbb 	bl	8001294 <ssd1306_WriteCommand>
 800131e:	b2e4      	uxtb	r4, r4
 8001320:	4628      	mov	r0, r5
 8001322:	2180      	movs	r1, #128	; 0x80
 8001324:	f7ff ffcc 	bl	80012c0 <ssd1306_WriteData>
 8001328:	2cb8      	cmp	r4, #184	; 0xb8
 800132a:	f105 0580 	add.w	r5, r5, #128	; 0x80
 800132e:	d1ec      	bne.n	800130a <ssd1306_UpdateScreen+0x6>
 8001330:	bd38      	pop	{r3, r4, r5, pc}
 8001332:	bf00      	nop
 8001334:	2000037c 	.word	0x2000037c

08001338 <ssd1306_DrawPixel>:
 8001338:	0603      	lsls	r3, r0, #24
 800133a:	b530      	push	{r4, r5, lr}
 800133c:	d411      	bmi.n	8001362 <ssd1306_DrawPixel+0x2a>
 800133e:	293f      	cmp	r1, #63	; 0x3f
 8001340:	d80f      	bhi.n	8001362 <ssd1306_DrawPixel+0x2a>
 8001342:	4b0d      	ldr	r3, [pc, #52]	; (8001378 <ssd1306_DrawPixel+0x40>)
 8001344:	4c0d      	ldr	r4, [pc, #52]	; (800137c <ssd1306_DrawPixel+0x44>)
 8001346:	791d      	ldrb	r5, [r3, #4]
 8001348:	08cb      	lsrs	r3, r1, #3
 800134a:	f001 0107 	and.w	r1, r1, #7
 800134e:	b14d      	cbz	r5, 8001364 <ssd1306_DrawPixel+0x2c>
 8001350:	b952      	cbnz	r2, 8001368 <ssd1306_DrawPixel+0x30>
 8001352:	eb00 10c3 	add.w	r0, r0, r3, lsl #7
 8001356:	2301      	movs	r3, #1
 8001358:	fa03 f101 	lsl.w	r1, r3, r1
 800135c:	5c23      	ldrb	r3, [r4, r0]
 800135e:	4319      	orrs	r1, r3
 8001360:	5421      	strb	r1, [r4, r0]
 8001362:	bd30      	pop	{r4, r5, pc}
 8001364:	2a01      	cmp	r2, #1
 8001366:	d0f4      	beq.n	8001352 <ssd1306_DrawPixel+0x1a>
 8001368:	eb00 10c3 	add.w	r0, r0, r3, lsl #7
 800136c:	2301      	movs	r3, #1
 800136e:	408b      	lsls	r3, r1
 8001370:	5c21      	ldrb	r1, [r4, r0]
 8001372:	ea21 0103 	bic.w	r1, r1, r3
 8001376:	e7f3      	b.n	8001360 <ssd1306_DrawPixel+0x28>
 8001378:	20000374 	.word	0x20000374
 800137c:	2000037c 	.word	0x2000037c

08001380 <ssd1306_WriteChar>:
 8001380:	e92d 4ff0 	stmdb	sp!, {r4, r5, r6, r7, r8, r9, sl, fp, lr}
 8001384:	4605      	mov	r5, r0
 8001386:	b087      	sub	sp, #28
 8001388:	f1a5 0420 	sub.w	r4, r5, #32
 800138c:	9301      	str	r3, [sp, #4]
 800138e:	b2e3      	uxtb	r3, r4
 8001390:	a806      	add	r0, sp, #24
 8001392:	2b5e      	cmp	r3, #94	; 0x5e
 8001394:	e900 0006 	stmdb	r0, {r1, r2}
 8001398:	d843      	bhi.n	8001422 <ssd1306_WriteChar+0xa2>
 800139a:	f8df a08c 	ldr.w	sl, [pc, #140]	; 8001428 <ssd1306_WriteChar+0xa8>
 800139e:	f89d b010 	ldrb.w	fp, [sp, #16]
 80013a2:	f8ba 6000 	ldrh.w	r6, [sl]
 80013a6:	eb06 030b 	add.w	r3, r6, fp
 80013aa:	2b80      	cmp	r3, #128	; 0x80
 80013ac:	dc39      	bgt.n	8001422 <ssd1306_WriteChar+0xa2>
 80013ae:	f8ba 3002 	ldrh.w	r3, [sl, #2]
 80013b2:	f89d 9011 	ldrb.w	r9, [sp, #17]
 80013b6:	9300      	str	r3, [sp, #0]
 80013b8:	eb03 0209 	add.w	r2, r3, r9
 80013bc:	2a40      	cmp	r2, #64	; 0x40
 80013be:	dc30      	bgt.n	8001422 <ssd1306_WriteChar+0xa2>
 80013c0:	fb09 f404 	mul.w	r4, r9, r4
 80013c4:	0064      	lsls	r4, r4, #1
 80013c6:	f04f 0800 	mov.w	r8, #0
 80013ca:	45c1      	cmp	r9, r8
 80013cc:	d806      	bhi.n	80013dc <ssd1306_WriteChar+0x5c>
 80013ce:	445e      	add	r6, fp
 80013d0:	f8aa 6000 	strh.w	r6, [sl]
 80013d4:	4628      	mov	r0, r5
 80013d6:	b007      	add	sp, #28
 80013d8:	e8bd 8ff0 	ldmia.w	sp!, {r4, r5, r6, r7, r8, r9, sl, fp, pc}
 80013dc:	9a05      	ldr	r2, [sp, #20]
 80013de:	5b13      	ldrh	r3, [r2, r4]
 80013e0:	9302      	str	r3, [sp, #8]
 80013e2:	9b00      	ldr	r3, [sp, #0]
 80013e4:	eb08 0103 	add.w	r1, r8, r3
 80013e8:	2700      	movs	r7, #0
 80013ea:	b2c9      	uxtb	r1, r1
 80013ec:	45bb      	cmp	fp, r7
 80013ee:	d803      	bhi.n	80013f8 <ssd1306_WriteChar+0x78>
 80013f0:	f108 0801 	add.w	r8, r8, #1
 80013f4:	3402      	adds	r4, #2
 80013f6:	e7e8      	b.n	80013ca <ssd1306_WriteChar+0x4a>
 80013f8:	9b02      	ldr	r3, [sp, #8]
 80013fa:	9103      	str	r1, [sp, #12]
 80013fc:	fa03 f207 	lsl.w	r2, r3, r7
 8001400:	0413      	lsls	r3, r2, #16
 8001402:	bf54      	ite	pl
 8001404:	9b01      	ldrpl	r3, [sp, #4]
 8001406:	9a01      	ldrmi	r2, [sp, #4]
 8001408:	eb07 0006 	add.w	r0, r7, r6
 800140c:	bf58      	it	pl
 800140e:	fab3 f283 	clzpl	r2, r3
 8001412:	b2c0      	uxtb	r0, r0
 8001414:	bf58      	it	pl
 8001416:	0952      	lsrpl	r2, r2, #5
 8001418:	f7ff ff8e 	bl	8001338 <ssd1306_DrawPixel>
 800141c:	3701      	adds	r7, #1
 800141e:	9903      	ldr	r1, [sp, #12]
 8001420:	e7e4      	b.n	80013ec <ssd1306_WriteChar+0x6c>
 8001422:	2500      	movs	r5, #0
 8001424:	e7d6      	b.n	80013d4 <ssd1306_WriteChar+0x54>
 8001426:	bf00      	nop
 8001428:	20000374 	.word	0x20000374

0800142c <ssd1306_WriteString>:
 800142c:	b5f7      	push	{r0, r1, r2, r4, r5, r6, r7, lr}
 800142e:	466e      	mov	r6, sp
 8001430:	e886 0006 	stmia.w	r6, {r1, r2}
 8001434:	461f      	mov	r7, r3
 8001436:	1e45      	subs	r5, r0, #1
 8001438:	f815 4f01 	ldrb.w	r4, [r5, #1]!
 800143c:	b144      	cbz	r4, 8001450 <ssd1306_WriteString+0x24>
 800143e:	4620      	mov	r0, r4
 8001440:	e896 0006 	ldmia.w	r6, {r1, r2}
 8001444:	463b      	mov	r3, r7
 8001446:	f7ff ff9b 	bl	8001380 <ssd1306_WriteChar>
 800144a:	782c      	ldrb	r4, [r5, #0]
 800144c:	42a0      	cmp	r0, r4
 800144e:	d0f3      	beq.n	8001438 <ssd1306_WriteString+0xc>
 8001450:	4620      	mov	r0, r4
 8001452:	b003      	add	sp, #12
 8001454:	bdf0      	pop	{r4, r5, r6, r7, pc}
	...

08001458 <ssd1306_SetCursor>:
 8001458:	4b01      	ldr	r3, [pc, #4]	; (8001460 <ssd1306_SetCursor+0x8>)
 800145a:	8018      	strh	r0, [r3, #0]
 800145c:	8059      	strh	r1, [r3, #2]
 800145e:	4770      	bx	lr
 8001460:	20000374 	.word	0x20000374

08001464 <HAL_MspInit>:
 8001464:	f04f 43b0 	mov.w	r3, #1476395008	; 0x58000000
 8001468:	b507      	push	{r0, r1, r2, lr}
 800146a:	6d1a      	ldr	r2, [r3, #80]	; 0x50
 800146c:	f442 2200 	orr.w	r2, r2, #524288	; 0x80000
 8001470:	651a      	str	r2, [r3, #80]	; 0x50
 8001472:	6d1b      	ldr	r3, [r3, #80]	; 0x50
 8001474:	2200      	movs	r2, #0
 8001476:	f403 2300 	and.w	r3, r3, #524288	; 0x80000
 800147a:	9301      	str	r3, [sp, #4]
 800147c:	4611      	mov	r1, r2
 800147e:	202e      	movs	r0, #46	; 0x2e
 8001480:	9b01      	ldr	r3, [sp, #4]
 8001482:	f000 f9f1 	bl	8001868 <HAL_NVIC_SetPriority>
 8001486:	202e      	movs	r0, #46	; 0x2e
 8001488:	b003      	add	sp, #12
 800148a:	f85d eb04 	ldr.w	lr, [sp], #4
 800148e:	f000 ba1d 	b.w	80018cc <HAL_NVIC_EnableIRQ>
	...

08001494 <HAL_I2C_MspInit>:
 8001494:	b510      	push	{r4, lr}
 8001496:	b09c      	sub	sp, #112	; 0x70
 8001498:	4604      	mov	r4, r0
 800149a:	2214      	movs	r2, #20
 800149c:	2100      	movs	r1, #0
 800149e:	a803      	add	r0, sp, #12
 80014a0:	f003 fd9a 	bl	8004fd8 <memset>
 80014a4:	2250      	movs	r2, #80	; 0x50
 80014a6:	2100      	movs	r1, #0
 80014a8:	a808      	add	r0, sp, #32
 80014aa:	f003 fd95 	bl	8004fd8 <memset>
 80014ae:	6822      	ldr	r2, [r4, #0]
 80014b0:	4b18      	ldr	r3, [pc, #96]	; (8001514 <HAL_I2C_MspInit+0x80>)
 80014b2:	429a      	cmp	r2, r3
 80014b4:	d12c      	bne.n	8001510 <HAL_I2C_MspInit+0x7c>
 80014b6:	2304      	movs	r3, #4
 80014b8:	9308      	str	r3, [sp, #32]
 80014ba:	a808      	add	r0, sp, #32
 80014bc:	f44f 3340 	mov.w	r3, #196608	; 0x30000
 80014c0:	9310      	str	r3, [sp, #64]	; 0x40
 80014c2:	f001 fb22 	bl	8002b0a <HAL_RCCEx_PeriphCLKConfig>
 80014c6:	b108      	cbz	r0, 80014cc <HAL_I2C_MspInit+0x38>
 80014c8:	f7ff fee2 	bl	8001290 <Error_Handler>
 80014cc:	f04f 44b0 	mov.w	r4, #1476395008	; 0x58000000
 80014d0:	f44f 7240 	mov.w	r2, #768	; 0x300
 80014d4:	6ce3      	ldr	r3, [r4, #76]	; 0x4c
 80014d6:	4810      	ldr	r0, [pc, #64]	; (8001518 <HAL_I2C_MspInit+0x84>)
 80014d8:	f043 0302 	orr.w	r3, r3, #2
 80014dc:	64e3      	str	r3, [r4, #76]	; 0x4c
 80014de:	6ce3      	ldr	r3, [r4, #76]	; 0x4c
 80014e0:	f003 0302 	and.w	r3, r3, #2
 80014e4:	9302      	str	r3, [sp, #8]
 80014e6:	9b02      	ldr	r3, [sp, #8]
 80014e8:	2312      	movs	r3, #18
 80014ea:	e9cd 2303 	strd	r2, r3, [sp, #12]
 80014ee:	2300      	movs	r3, #0
 80014f0:	e9cd 3305 	strd	r3, r3, [sp, #20]
 80014f4:	a903      	add	r1, sp, #12
 80014f6:	2304      	movs	r3, #4
 80014f8:	9307      	str	r3, [sp, #28]
 80014fa:	f000 fa3d 	bl	8001978 <HAL_GPIO_Init>
 80014fe:	6da3      	ldr	r3, [r4, #88]	; 0x58
 8001500:	f443 1300 	orr.w	r3, r3, #2097152	; 0x200000
 8001504:	65a3      	str	r3, [r4, #88]	; 0x58
 8001506:	6da3      	ldr	r3, [r4, #88]	; 0x58
 8001508:	f403 1300 	and.w	r3, r3, #2097152	; 0x200000
 800150c:	9301      	str	r3, [sp, #4]
 800150e:	9b01      	ldr	r3, [sp, #4]
 8001510:	b01c      	add	sp, #112	; 0x70
 8001512:	bd10      	pop	{r4, pc}
 8001514:	40005400 	.word	0x40005400
 8001518:	48000400 	.word	0x48000400

0800151c <HAL_IPCC_MspInit>:
 800151c:	b507      	push	{r0, r1, r2, lr}
 800151e:	4b12      	ldr	r3, [pc, #72]	; (8001568 <HAL_IPCC_MspInit+0x4c>)
 8001520:	6802      	ldr	r2, [r0, #0]
 8001522:	429a      	cmp	r2, r3
 8001524:	d11d      	bne.n	8001562 <HAL_IPCC_MspInit+0x46>
 8001526:	f04f 43b0 	mov.w	r3, #1476395008	; 0x58000000
 800152a:	202c      	movs	r0, #44	; 0x2c
 800152c:	6d1a      	ldr	r2, [r3, #80]	; 0x50
 800152e:	f442 1280 	orr.w	r2, r2, #1048576	; 0x100000
 8001532:	651a      	str	r2, [r3, #80]	; 0x50
 8001534:	6d1b      	ldr	r3, [r3, #80]	; 0x50
 8001536:	2200      	movs	r2, #0
 8001538:	f403 1380 	and.w	r3, r3, #1048576	; 0x100000
 800153c:	4611      	mov	r1, r2
 800153e:	9301      	str	r3, [sp, #4]
 8001540:	9b01      	ldr	r3, [sp, #4]
 8001542:	f000 f991 	bl	8001868 <HAL_NVIC_SetPriority>
 8001546:	202c      	movs	r0, #44	; 0x2c
 8001548:	f000 f9c0 	bl	80018cc <HAL_NVIC_EnableIRQ>
 800154c:	2200      	movs	r2, #0
 800154e:	4611      	mov	r1, r2
 8001550:	202d      	movs	r0, #45	; 0x2d
 8001552:	f000 f989 	bl	8001868 <HAL_NVIC_SetPriority>
 8001556:	202d      	movs	r0, #45	; 0x2d
 8001558:	b003      	add	sp, #12
 800155a:	f85d eb04 	ldr.w	lr, [sp], #4
 800155e:	f000 b9b5 	b.w	80018cc <HAL_NVIC_EnableIRQ>
 8001562:	b003      	add	sp, #12
 8001564:	f85d fb04 	ldr.w	pc, [sp], #4
 8001568:	58000c00 	.word	0x58000c00

0800156c <HAL_RTC_MspInit>:
 800156c:	b510      	push	{r4, lr}
 800156e:	4604      	mov	r4, r0
 8001570:	b096      	sub	sp, #88	; 0x58
 8001572:	2250      	movs	r2, #80	; 0x50
 8001574:	2100      	movs	r1, #0
 8001576:	a802      	add	r0, sp, #8
 8001578:	f003 fd2e 	bl	8004fd8 <memset>
 800157c:	6822      	ldr	r2, [r4, #0]
 800157e:	4b15      	ldr	r3, [pc, #84]	; (80015d4 <HAL_RTC_MspInit+0x68>)
 8001580:	429a      	cmp	r2, r3
 8001582:	d124      	bne.n	80015ce <HAL_RTC_MspInit+0x62>
 8001584:	f44f 6300 	mov.w	r3, #2048	; 0x800
 8001588:	9302      	str	r3, [sp, #8]
 800158a:	a802      	add	r0, sp, #8
 800158c:	f44f 7380 	mov.w	r3, #256	; 0x100
 8001590:	9312      	str	r3, [sp, #72]	; 0x48
 8001592:	f001 faba 	bl	8002b0a <HAL_RCCEx_PeriphCLKConfig>
 8001596:	b108      	cbz	r0, 800159c <HAL_RTC_MspInit+0x30>
 8001598:	f7ff fe7a 	bl	8001290 <Error_Handler>
 800159c:	f04f 43b0 	mov.w	r3, #1476395008	; 0x58000000
 80015a0:	2003      	movs	r0, #3
 80015a2:	f8d3 2090 	ldr.w	r2, [r3, #144]	; 0x90
 80015a6:	f442 4200 	orr.w	r2, r2, #32768	; 0x8000
 80015aa:	f8c3 2090 	str.w	r2, [r3, #144]	; 0x90
 80015ae:	6d9a      	ldr	r2, [r3, #88]	; 0x58
 80015b0:	f442 6280 	orr.w	r2, r2, #1024	; 0x400
 80015b4:	659a      	str	r2, [r3, #88]	; 0x58
 80015b6:	6d9b      	ldr	r3, [r3, #88]	; 0x58
 80015b8:	2200      	movs	r2, #0
 80015ba:	f403 6380 	and.w	r3, r3, #1024	; 0x400
 80015be:	9301      	str	r3, [sp, #4]
 80015c0:	4611      	mov	r1, r2
 80015c2:	9b01      	ldr	r3, [sp, #4]
 80015c4:	f000 f950 	bl	8001868 <HAL_NVIC_SetPriority>
 80015c8:	2003      	movs	r0, #3
 80015ca:	f000 f97f 	bl	80018cc <HAL_NVIC_EnableIRQ>
 80015ce:	b016      	add	sp, #88	; 0x58
 80015d0:	bd10      	pop	{r4, pc}
 80015d2:	bf00      	nop
 80015d4:	40002800 	.word	0x40002800

080015d8 <HAL_UART_MspInit>:
 80015d8:	b510      	push	{r4, lr}
 80015da:	b09c      	sub	sp, #112	; 0x70
 80015dc:	4604      	mov	r4, r0
 80015de:	2214      	movs	r2, #20
 80015e0:	2100      	movs	r1, #0
 80015e2:	a803      	add	r0, sp, #12
 80015e4:	f003 fcf8 	bl	8004fd8 <memset>
 80015e8:	2250      	movs	r2, #80	; 0x50
 80015ea:	2100      	movs	r1, #0
 80015ec:	a808      	add	r0, sp, #32
 80015ee:	f003 fcf3 	bl	8004fd8 <memset>
 80015f2:	6822      	ldr	r2, [r4, #0]
 80015f4:	4b16      	ldr	r3, [pc, #88]	; (8001650 <HAL_UART_MspInit+0x78>)
 80015f6:	429a      	cmp	r2, r3
 80015f8:	d128      	bne.n	800164c <HAL_UART_MspInit+0x74>
 80015fa:	2301      	movs	r3, #1
 80015fc:	a808      	add	r0, sp, #32
 80015fe:	9308      	str	r3, [sp, #32]
 8001600:	f001 fa83 	bl	8002b0a <HAL_RCCEx_PeriphCLKConfig>
 8001604:	b108      	cbz	r0, 800160a <HAL_UART_MspInit+0x32>
 8001606:	f7ff fe43 	bl	8001290 <Error_Handler>
 800160a:	f04f 43b0 	mov.w	r3, #1476395008	; 0x58000000
 800160e:	4811      	ldr	r0, [pc, #68]	; (8001654 <HAL_UART_MspInit+0x7c>)
 8001610:	6e1a      	ldr	r2, [r3, #96]	; 0x60
 8001612:	f442 4280 	orr.w	r2, r2, #16384	; 0x4000
 8001616:	661a      	str	r2, [r3, #96]	; 0x60
 8001618:	6e1a      	ldr	r2, [r3, #96]	; 0x60
 800161a:	f402 4280 	and.w	r2, r2, #16384	; 0x4000
 800161e:	9202      	str	r2, [sp, #8]
 8001620:	9a02      	ldr	r2, [sp, #8]
 8001622:	6cda      	ldr	r2, [r3, #76]	; 0x4c
 8001624:	f042 0202 	orr.w	r2, r2, #2
 8001628:	64da      	str	r2, [r3, #76]	; 0x4c
 800162a:	6cdb      	ldr	r3, [r3, #76]	; 0x4c
 800162c:	f003 0302 	and.w	r3, r3, #2
 8001630:	9301      	str	r3, [sp, #4]
 8001632:	9b01      	ldr	r3, [sp, #4]
 8001634:	22c0      	movs	r2, #192	; 0xc0
 8001636:	2302      	movs	r3, #2
 8001638:	e9cd 2303 	strd	r2, r3, [sp, #12]
 800163c:	2300      	movs	r3, #0
 800163e:	e9cd 3305 	strd	r3, r3, [sp, #20]
 8001642:	a903      	add	r1, sp, #12
 8001644:	2307      	movs	r3, #7
 8001646:	9307      	str	r3, [sp, #28]
 8001648:	f000 f996 	bl	8001978 <HAL_GPIO_Init>
 800164c:	b01c      	add	sp, #112	; 0x70
 800164e:	bd10      	pop	{r4, pc}
 8001650:	40013800 	.word	0x40013800
 8001654:	48000400 	.word	0x48000400

08001658 <NMI_Handler>:
 8001658:	e7fe      	b.n	8001658 <NMI_Handler>

0800165a <HardFault_Handler>:
 800165a:	e7fe      	b.n	800165a <HardFault_Handler>

0800165c <MemManage_Handler>:
 800165c:	e7fe      	b.n	800165c <MemManage_Handler>

0800165e <BusFault_Handler>:
 800165e:	e7fe      	b.n	800165e <BusFault_Handler>

08001660 <UsageFault_Handler>:
 8001660:	e7fe      	b.n	8001660 <UsageFault_Handler>

08001662 <SVC_Handler>:
 8001662:	4770      	bx	lr

08001664 <DebugMon_Handler>:
 8001664:	4770      	bx	lr

08001666 <PendSV_Handler>:
 8001666:	4770      	bx	lr

08001668 <SysTick_Handler>:
 8001668:	f000 b8ce 	b.w	8001808 <HAL_IncTick>

0800166c <RTC_WKUP_IRQHandler>:
 800166c:	f7ff bbbc 	b.w	8000de8 <HW_TS_RTC_Wakeup_Handler>

08001670 <IPCC_C1_RX_IRQHandler>:
 8001670:	f003 baf4 	b.w	8004c5c <HW_IPCC_Rx_Handler>

08001674 <IPCC_C1_TX_IRQHandler>:
 8001674:	f003 baa2 	b.w	8004bbc <HW_IPCC_Tx_Handler>

08001678 <HSEM_IRQHandler>:
 8001678:	f000 ba4a 	b.w	8001b10 <HAL_HSEM_IRQHandler>

0800167c <_sbrk>:
 800167c:	4a0b      	ldr	r2, [pc, #44]	; (80016ac <_sbrk+0x30>)
 800167e:	6811      	ldr	r1, [r2, #0]
 8001680:	b510      	push	{r4, lr}
 8001682:	4603      	mov	r3, r0
 8001684:	b909      	cbnz	r1, 800168a <_sbrk+0xe>
 8001686:	490a      	ldr	r1, [pc, #40]	; (80016b0 <_sbrk+0x34>)
 8001688:	6011      	str	r1, [r2, #0]
 800168a:	6810      	ldr	r0, [r2, #0]
 800168c:	4909      	ldr	r1, [pc, #36]	; (80016b4 <_sbrk+0x38>)
 800168e:	4c0a      	ldr	r4, [pc, #40]	; (80016b8 <_sbrk+0x3c>)
 8001690:	4403      	add	r3, r0
 8001692:	1b09      	subs	r1, r1, r4
 8001694:	428b      	cmp	r3, r1
 8001696:	d906      	bls.n	80016a6 <_sbrk+0x2a>
 8001698:	f003 fc4c 	bl	8004f34 <__errno>
 800169c:	230c      	movs	r3, #12
 800169e:	6003      	str	r3, [r0, #0]
 80016a0:	f04f 30ff 	mov.w	r0, #4294967295
 80016a4:	bd10      	pop	{r4, pc}
 80016a6:	6013      	str	r3, [r2, #0]
 80016a8:	e7fc      	b.n	80016a4 <_sbrk+0x28>
 80016aa:	bf00      	nop
 80016ac:	2000077c 	.word	0x2000077c
 80016b0:	200009f0 	.word	0x200009f0
 80016b4:	20030000 	.word	0x20030000
 80016b8:	00000400 	.word	0x00000400

080016bc <SystemInit>:
 80016bc:	4a16      	ldr	r2, [pc, #88]	; (8001718 <SystemInit+0x5c>)
 80016be:	f8d2 3088 	ldr.w	r3, [r2, #136]	; 0x88
 80016c2:	f443 0370 	orr.w	r3, r3, #15728640	; 0xf00000
 80016c6:	f8c2 3088 	str.w	r3, [r2, #136]	; 0x88
 80016ca:	f04f 43b0 	mov.w	r3, #1476395008	; 0x58000000
 80016ce:	f46f 7082 	mvn.w	r0, #260	; 0x104
 80016d2:	681a      	ldr	r2, [r3, #0]
 80016d4:	f042 0201 	orr.w	r2, r2, #1
 80016d8:	601a      	str	r2, [r3, #0]
 80016da:	f44f 22e0 	mov.w	r2, #458752	; 0x70000
 80016de:	609a      	str	r2, [r3, #8]
 80016e0:	6819      	ldr	r1, [r3, #0]
 80016e2:	f1a2 62a2 	sub.w	r2, r2, #84934656	; 0x5100000
 80016e6:	4402      	add	r2, r0
 80016e8:	400a      	ands	r2, r1
 80016ea:	601a      	str	r2, [r3, #0]
 80016ec:	f8d3 2094 	ldr.w	r2, [r3, #148]	; 0x94
 80016f0:	f022 0205 	bic.w	r2, r2, #5
 80016f4:	f8c3 2094 	str.w	r2, [r3, #148]	; 0x94
 80016f8:	f8d3 2098 	ldr.w	r2, [r3, #152]	; 0x98
 80016fc:	f022 0201 	bic.w	r2, r2, #1
 8001700:	f8c3 2098 	str.w	r2, [r3, #152]	; 0x98
 8001704:	4a05      	ldr	r2, [pc, #20]	; (800171c <SystemInit+0x60>)
 8001706:	60da      	str	r2, [r3, #12]
 8001708:	611a      	str	r2, [r3, #16]
 800170a:	681a      	ldr	r2, [r3, #0]
 800170c:	f422 2280 	bic.w	r2, r2, #262144	; 0x40000
 8001710:	601a      	str	r2, [r3, #0]
 8001712:	2200      	movs	r2, #0
 8001714:	619a      	str	r2, [r3, #24]
 8001716:	4770      	bx	lr
 8001718:	e000ed00 	.word	0xe000ed00
 800171c:	22041000 	.word	0x22041000

08001720 <CopyDataInit>:
 8001720:	58d4      	ldr	r4, [r2, r3]
 8001722:	50c4      	str	r4, [r0, r3]
 8001724:	3304      	adds	r3, #4

08001726 <LoopCopyDataInit>:
 8001726:	18c4      	adds	r4, r0, r3
 8001728:	428c      	cmp	r4, r1
 800172a:	d3f9      	bcc.n	8001720 <CopyDataInit>
 800172c:	4770      	bx	lr

0800172e <FillZerobss>:
 800172e:	6003      	str	r3, [r0, #0]
 8001730:	3004      	adds	r0, #4

08001732 <LoopFillZerobss>:
 8001732:	4288      	cmp	r0, r1
 8001734:	d3fb      	bcc.n	800172e <FillZerobss>
 8001736:	4770      	bx	lr

08001738 <Reset_Handler>:
 8001738:	480c      	ldr	r0, [pc, #48]	; (800176c <LoopForever+0x4>)
 800173a:	4685      	mov	sp, r0
 800173c:	f7ff ffbe 	bl	80016bc <SystemInit>
 8001740:	480b      	ldr	r0, [pc, #44]	; (8001770 <LoopForever+0x8>)
 8001742:	490c      	ldr	r1, [pc, #48]	; (8001774 <LoopForever+0xc>)
 8001744:	4a0c      	ldr	r2, [pc, #48]	; (8001778 <LoopForever+0x10>)
 8001746:	2300      	movs	r3, #0
 8001748:	f7ff ffed 	bl	8001726 <LoopCopyDataInit>
 800174c:	480b      	ldr	r0, [pc, #44]	; (800177c <LoopForever+0x14>)
 800174e:	490c      	ldr	r1, [pc, #48]	; (8001780 <LoopForever+0x18>)
 8001750:	2300      	movs	r3, #0
 8001752:	f7ff ffee 	bl	8001732 <LoopFillZerobss>
 8001756:	480b      	ldr	r0, [pc, #44]	; (8001784 <LoopForever+0x1c>)
 8001758:	490b      	ldr	r1, [pc, #44]	; (8001788 <LoopForever+0x20>)
 800175a:	2300      	movs	r3, #0
 800175c:	f7ff ffe9 	bl	8001732 <LoopFillZerobss>
 8001760:	f003 fbee 	bl	8004f40 <__libc_init_array>
 8001764:	f7ff fcaa 	bl	80010bc <main>

08001768 <LoopForever>:
 8001768:	e7fe      	b.n	8001768 <LoopForever>
 800176a:	0000      	.short	0x0000
 800176c:	20030000 	.word	0x20030000
 8001770:	20000004 	.word	0x20000004
 8001774:	200000a4 	.word	0x200000a4
 8001778:	08008b84 	.word	0x08008b84
 800177c:	20000210 	.word	0x20000210
 8001780:	200009f0 	.word	0x200009f0
 8001784:	200301e0 	.word	0x200301e0
 8001788:	20030a57 	.word	0x20030a57

0800178c <ADC1_IRQHandler>:
 800178c:	e7fe      	b.n	800178c <ADC1_IRQHandler>
	...

08001790 <HAL_InitTick>:
 8001790:	b538      	push	{r3, r4, r5, lr}
 8001792:	4c10      	ldr	r4, [pc, #64]	; (80017d4 <HAL_InitTick+0x44>)
 8001794:	7823      	ldrb	r3, [r4, #0]
 8001796:	4605      	mov	r5, r0
 8001798:	b90b      	cbnz	r3, 800179e <HAL_InitTick+0xe>
 800179a:	2001      	movs	r0, #1
 800179c:	bd38      	pop	{r3, r4, r5, pc}
 800179e:	f000 fd89 	bl	80022b4 <HAL_RCC_GetHCLKFreq>
 80017a2:	7822      	ldrb	r2, [r4, #0]
 80017a4:	f44f 737a 	mov.w	r3, #1000	; 0x3e8
 80017a8:	fbb3 f3f2 	udiv	r3, r3, r2
 80017ac:	fbb0 f0f3 	udiv	r0, r0, r3
 80017b0:	f000 f8ae 	bl	8001910 <HAL_SYSTICK_Config>
 80017b4:	4604      	mov	r4, r0
 80017b6:	2800      	cmp	r0, #0
 80017b8:	d1ef      	bne.n	800179a <HAL_InitTick+0xa>
 80017ba:	2d0f      	cmp	r5, #15
 80017bc:	d8ed      	bhi.n	800179a <HAL_InitTick+0xa>
 80017be:	4602      	mov	r2, r0
 80017c0:	4629      	mov	r1, r5
 80017c2:	f04f 30ff 	mov.w	r0, #4294967295
 80017c6:	f000 f84f 	bl	8001868 <HAL_NVIC_SetPriority>
 80017ca:	4b03      	ldr	r3, [pc, #12]	; (80017d8 <HAL_InitTick+0x48>)
 80017cc:	4620      	mov	r0, r4
 80017ce:	601d      	str	r5, [r3, #0]
 80017d0:	e7e4      	b.n	800179c <HAL_InitTick+0xc>
 80017d2:	bf00      	nop
 80017d4:	20000028 	.word	0x20000028
 80017d8:	2000002c 	.word	0x2000002c

080017dc <HAL_Init>:
 80017dc:	4a09      	ldr	r2, [pc, #36]	; (8001804 <HAL_Init+0x28>)
 80017de:	6813      	ldr	r3, [r2, #0]
 80017e0:	f443 7380 	orr.w	r3, r3, #256	; 0x100
 80017e4:	b510      	push	{r4, lr}
 80017e6:	2003      	movs	r0, #3
 80017e8:	6013      	str	r3, [r2, #0]
 80017ea:	f000 f82b 	bl	8001844 <HAL_NVIC_SetPriorityGrouping>
 80017ee:	2000      	movs	r0, #0
 80017f0:	f7ff ffce 	bl	8001790 <HAL_InitTick>
 80017f4:	4604      	mov	r4, r0
 80017f6:	b918      	cbnz	r0, 8001800 <HAL_Init+0x24>
 80017f8:	f7ff fe34 	bl	8001464 <HAL_MspInit>
 80017fc:	4620      	mov	r0, r4
 80017fe:	bd10      	pop	{r4, pc}
 8001800:	2401      	movs	r4, #1
 8001802:	e7fb      	b.n	80017fc <HAL_Init+0x20>
 8001804:	58004000 	.word	0x58004000

08001808 <HAL_IncTick>:
 8001808:	4a03      	ldr	r2, [pc, #12]	; (8001818 <HAL_IncTick+0x10>)
 800180a:	4b04      	ldr	r3, [pc, #16]	; (800181c <HAL_IncTick+0x14>)
 800180c:	6811      	ldr	r1, [r2, #0]
 800180e:	781b      	ldrb	r3, [r3, #0]
 8001810:	440b      	add	r3, r1
 8001812:	6013      	str	r3, [r2, #0]
 8001814:	4770      	bx	lr
 8001816:	bf00      	nop
 8001818:	20000780 	.word	0x20000780
 800181c:	20000028 	.word	0x20000028

08001820 <HAL_GetTick>:
 8001820:	4b01      	ldr	r3, [pc, #4]	; (8001828 <HAL_GetTick+0x8>)
 8001822:	6818      	ldr	r0, [r3, #0]
 8001824:	4770      	bx	lr
 8001826:	bf00      	nop
 8001828:	20000780 	.word	0x20000780

0800182c <HAL_GetTickPrio>:
 800182c:	4b01      	ldr	r3, [pc, #4]	; (8001834 <HAL_GetTickPrio+0x8>)
 800182e:	6818      	ldr	r0, [r3, #0]
 8001830:	4770      	bx	lr
 8001832:	bf00      	nop
 8001834:	2000002c 	.word	0x2000002c

08001838 <HAL_GetTickFreq>:
 8001838:	4b01      	ldr	r3, [pc, #4]	; (8001840 <HAL_GetTickFreq+0x8>)
 800183a:	7818      	ldrb	r0, [r3, #0]
 800183c:	4770      	bx	lr
 800183e:	bf00      	nop
 8001840:	20000028 	.word	0x20000028

08001844 <HAL_NVIC_SetPriorityGrouping>:
 8001844:	4907      	ldr	r1, [pc, #28]	; (8001864 <HAL_NVIC_SetPriorityGrouping+0x20>)
 8001846:	68ca      	ldr	r2, [r1, #12]
 8001848:	f422 62e0 	bic.w	r2, r2, #1792	; 0x700
 800184c:	0203      	lsls	r3, r0, #8
 800184e:	0412      	lsls	r2, r2, #16
 8001850:	f403 63e0 	and.w	r3, r3, #1792	; 0x700
 8001854:	0c12      	lsrs	r2, r2, #16
 8001856:	4313      	orrs	r3, r2
 8001858:	f043 63bf 	orr.w	r3, r3, #100139008	; 0x5f80000
 800185c:	f443 3300 	orr.w	r3, r3, #131072	; 0x20000
 8001860:	60cb      	str	r3, [r1, #12]
 8001862:	4770      	bx	lr
 8001864:	e000ed00 	.word	0xe000ed00

08001868 <HAL_NVIC_SetPriority>:
 8001868:	4b16      	ldr	r3, [pc, #88]	; (80018c4 <HAL_NVIC_SetPriority+0x5c>)
 800186a:	b530      	push	{r4, r5, lr}
 800186c:	68dc      	ldr	r4, [r3, #12]
 800186e:	f3c4 2402 	ubfx	r4, r4, #8, #3
 8001872:	f1c4 0507 	rsb	r5, r4, #7
 8001876:	1d23      	adds	r3, r4, #4
 8001878:	2d04      	cmp	r5, #4
 800187a:	bf28      	it	cs
 800187c:	2504      	movcs	r5, #4
 800187e:	2b06      	cmp	r3, #6
 8001880:	f04f 33ff 	mov.w	r3, #4294967295
 8001884:	bf8c      	ite	hi
 8001886:	3c03      	subhi	r4, #3
 8001888:	2400      	movls	r4, #0
 800188a:	fa03 f505 	lsl.w	r5, r3, r5
 800188e:	ea21 0105 	bic.w	r1, r1, r5
 8001892:	40a3      	lsls	r3, r4
 8001894:	ea22 0203 	bic.w	r2, r2, r3
 8001898:	40a1      	lsls	r1, r4
 800189a:	2800      	cmp	r0, #0
 800189c:	ea41 0302 	orr.w	r3, r1, r2
 80018a0:	bfac      	ite	ge
 80018a2:	f100 4060 	addge.w	r0, r0, #3758096384	; 0xe0000000
 80018a6:	4a08      	ldrlt	r2, [pc, #32]	; (80018c8 <HAL_NVIC_SetPriority+0x60>)
 80018a8:	ea4f 1303 	mov.w	r3, r3, lsl #4
 80018ac:	bfb8      	it	lt
 80018ae:	f000 000f 	andlt.w	r0, r0, #15
 80018b2:	b2db      	uxtb	r3, r3
 80018b4:	bfaa      	itet	ge
 80018b6:	f500 4061 	addge.w	r0, r0, #57600	; 0xe100
 80018ba:	5413      	strblt	r3, [r2, r0]
 80018bc:	f880 3300 	strbge.w	r3, [r0, #768]	; 0x300
 80018c0:	bd30      	pop	{r4, r5, pc}
 80018c2:	bf00      	nop
 80018c4:	e000ed00 	.word	0xe000ed00
 80018c8:	e000ed14 	.word	0xe000ed14

080018cc <HAL_NVIC_EnableIRQ>:
 80018cc:	2800      	cmp	r0, #0
 80018ce:	db08      	blt.n	80018e2 <HAL_NVIC_EnableIRQ+0x16>
 80018d0:	2301      	movs	r3, #1
 80018d2:	0942      	lsrs	r2, r0, #5
 80018d4:	f000 001f 	and.w	r0, r0, #31
 80018d8:	fa03 f000 	lsl.w	r0, r3, r0
 80018dc:	4b01      	ldr	r3, [pc, #4]	; (80018e4 <HAL_NVIC_EnableIRQ+0x18>)
 80018de:	f843 0022 	str.w	r0, [r3, r2, lsl #2]
 80018e2:	4770      	bx	lr
 80018e4:	e000e100 	.word	0xe000e100

080018e8 <HAL_NVIC_DisableIRQ>:
 80018e8:	2800      	cmp	r0, #0
 80018ea:	db0d      	blt.n	8001908 <HAL_NVIC_DisableIRQ+0x20>
 80018ec:	0943      	lsrs	r3, r0, #5
 80018ee:	2201      	movs	r2, #1
 80018f0:	f000 001f 	and.w	r0, r0, #31
 80018f4:	fa02 f000 	lsl.w	r0, r2, r0
 80018f8:	3320      	adds	r3, #32
 80018fa:	4a04      	ldr	r2, [pc, #16]	; (800190c <HAL_NVIC_DisableIRQ+0x24>)
 80018fc:	f842 0023 	str.w	r0, [r2, r3, lsl #2]
 8001900:	f3bf 8f4f 	dsb	sy
 8001904:	f3bf 8f6f 	isb	sy
 8001908:	4770      	bx	lr
 800190a:	bf00      	nop
 800190c:	e000e100 	.word	0xe000e100

08001910 <HAL_SYSTICK_Config>:
 8001910:	3801      	subs	r0, #1
 8001912:	f1b0 7f80 	cmp.w	r0, #16777216	; 0x1000000
 8001916:	d20b      	bcs.n	8001930 <HAL_SYSTICK_Config+0x20>
 8001918:	f04f 23e0 	mov.w	r3, #3758153728	; 0xe000e000
 800191c:	4a05      	ldr	r2, [pc, #20]	; (8001934 <HAL_SYSTICK_Config+0x24>)
 800191e:	6158      	str	r0, [r3, #20]
 8001920:	21f0      	movs	r1, #240	; 0xf0
 8001922:	f882 1023 	strb.w	r1, [r2, #35]	; 0x23
 8001926:	2000      	movs	r0, #0
 8001928:	2207      	movs	r2, #7
 800192a:	6198      	str	r0, [r3, #24]
 800192c:	611a      	str	r2, [r3, #16]
 800192e:	4770      	bx	lr
 8001930:	2001      	movs	r0, #1
 8001932:	4770      	bx	lr
 8001934:	e000ed00 	.word	0xe000ed00

08001938 <HAL_NVIC_SetPendingIRQ>:
 8001938:	2800      	cmp	r0, #0
 800193a:	db09      	blt.n	8001950 <HAL_NVIC_SetPendingIRQ+0x18>
 800193c:	0943      	lsrs	r3, r0, #5
 800193e:	2201      	movs	r2, #1
 8001940:	f000 001f 	and.w	r0, r0, #31
 8001944:	fa02 f000 	lsl.w	r0, r2, r0
 8001948:	3340      	adds	r3, #64	; 0x40
 800194a:	4a02      	ldr	r2, [pc, #8]	; (8001954 <HAL_NVIC_SetPendingIRQ+0x1c>)
 800194c:	f842 0023 	str.w	r0, [r2, r3, lsl #2]
 8001950:	4770      	bx	lr
 8001952:	bf00      	nop
 8001954:	e000e100 	.word	0xe000e100

08001958 <HAL_NVIC_ClearPendingIRQ>:
 8001958:	2800      	cmp	r0, #0
 800195a:	db09      	blt.n	8001970 <HAL_NVIC_ClearPendingIRQ+0x18>
 800195c:	0943      	lsrs	r3, r0, #5
 800195e:	2201      	movs	r2, #1
 8001960:	f000 001f 	and.w	r0, r0, #31
 8001964:	fa02 f000 	lsl.w	r0, r2, r0
 8001968:	3360      	adds	r3, #96	; 0x60
 800196a:	4a02      	ldr	r2, [pc, #8]	; (8001974 <HAL_NVIC_ClearPendingIRQ+0x1c>)
 800196c:	f842 0023 	str.w	r0, [r2, r3, lsl #2]
 8001970:	4770      	bx	lr
 8001972:	bf00      	nop
 8001974:	e000e100 	.word	0xe000e100

08001978 <HAL_GPIO_Init>:
 8001978:	e92d 4ff0 	stmdb	sp!, {r4, r5, r6, r7, r8, r9, sl, fp, lr}
 800197c:	4c57      	ldr	r4, [pc, #348]	; (8001adc <HAL_GPIO_Init+0x164>)
 800197e:	2300      	movs	r3, #0
 8001980:	f04f 090f 	mov.w	r9, #15
 8001984:	680a      	ldr	r2, [r1, #0]
 8001986:	fa32 f503 	lsrs.w	r5, r2, r3
 800198a:	d101      	bne.n	8001990 <HAL_GPIO_Init+0x18>
 800198c:	e8bd 8ff0 	ldmia.w	sp!, {r4, r5, r6, r7, r8, r9, sl, fp, pc}
 8001990:	2501      	movs	r5, #1
 8001992:	fa05 f803 	lsl.w	r8, r5, r3
 8001996:	ea18 0202 	ands.w	r2, r8, r2
 800199a:	f000 8094 	beq.w	8001ac6 <HAL_GPIO_Init+0x14e>
 800199e:	684e      	ldr	r6, [r1, #4]
 80019a0:	2703      	movs	r7, #3
 80019a2:	f006 0503 	and.w	r5, r6, #3
 80019a6:	ea4f 0e43 	mov.w	lr, r3, lsl #1
 80019aa:	fa07 fc0e 	lsl.w	ip, r7, lr
 80019ae:	1e6f      	subs	r7, r5, #1
 80019b0:	2f01      	cmp	r7, #1
 80019b2:	ea6f 0c0c 	mvn.w	ip, ip
 80019b6:	d832      	bhi.n	8001a1e <HAL_GPIO_Init+0xa6>
 80019b8:	6887      	ldr	r7, [r0, #8]
 80019ba:	ea07 0a0c 	and.w	sl, r7, ip
 80019be:	68cf      	ldr	r7, [r1, #12]
 80019c0:	fa07 f70e 	lsl.w	r7, r7, lr
 80019c4:	ea47 070a 	orr.w	r7, r7, sl
 80019c8:	6087      	str	r7, [r0, #8]
 80019ca:	6847      	ldr	r7, [r0, #4]
 80019cc:	ea27 0808 	bic.w	r8, r7, r8
 80019d0:	f3c6 1700 	ubfx	r7, r6, #4, #1
 80019d4:	409f      	lsls	r7, r3
 80019d6:	ea47 0708 	orr.w	r7, r7, r8
 80019da:	6047      	str	r7, [r0, #4]
 80019dc:	68c7      	ldr	r7, [r0, #12]
 80019de:	ea07 080c 	and.w	r8, r7, ip
 80019e2:	688f      	ldr	r7, [r1, #8]
 80019e4:	fa07 f70e 	lsl.w	r7, r7, lr
 80019e8:	ea47 0708 	orr.w	r7, r7, r8
 80019ec:	2d02      	cmp	r5, #2
 80019ee:	60c7      	str	r7, [r0, #12]
 80019f0:	d117      	bne.n	8001a22 <HAL_GPIO_Init+0xaa>
 80019f2:	ea4f 08d3 	mov.w	r8, r3, lsr #3
 80019f6:	eb00 0888 	add.w	r8, r0, r8, lsl #2
 80019fa:	f003 0a07 	and.w	sl, r3, #7
 80019fe:	f8d8 7020 	ldr.w	r7, [r8, #32]
 8001a02:	ea4f 0a8a 	mov.w	sl, sl, lsl #2
 8001a06:	fa09 fb0a 	lsl.w	fp, r9, sl
 8001a0a:	ea27 0b0b 	bic.w	fp, r7, fp
 8001a0e:	690f      	ldr	r7, [r1, #16]
 8001a10:	fa07 f70a 	lsl.w	r7, r7, sl
 8001a14:	ea47 070b 	orr.w	r7, r7, fp
 8001a18:	f8c8 7020 	str.w	r7, [r8, #32]
 8001a1c:	e001      	b.n	8001a22 <HAL_GPIO_Init+0xaa>
 8001a1e:	2d03      	cmp	r5, #3
 8001a20:	d1dc      	bne.n	80019dc <HAL_GPIO_Init+0x64>
 8001a22:	6807      	ldr	r7, [r0, #0]
 8001a24:	fa05 f50e 	lsl.w	r5, r5, lr
 8001a28:	ea07 070c 	and.w	r7, r7, ip
 8001a2c:	432f      	orrs	r7, r5
 8001a2e:	f416 3f40 	tst.w	r6, #196608	; 0x30000
 8001a32:	6007      	str	r7, [r0, #0]
 8001a34:	d047      	beq.n	8001ac6 <HAL_GPIO_Init+0x14e>
 8001a36:	f023 0703 	bic.w	r7, r3, #3
 8001a3a:	f107 4780 	add.w	r7, r7, #1073741824	; 0x40000000
 8001a3e:	f507 3780 	add.w	r7, r7, #65536	; 0x10000
 8001a42:	f003 0c03 	and.w	ip, r3, #3
 8001a46:	68bd      	ldr	r5, [r7, #8]
 8001a48:	ea4f 0c8c 	mov.w	ip, ip, lsl #2
 8001a4c:	fa09 fe0c 	lsl.w	lr, r9, ip
 8001a50:	f1b0 4f90 	cmp.w	r0, #1207959552	; 0x48000000
 8001a54:	ea25 0e0e 	bic.w	lr, r5, lr
 8001a58:	d037      	beq.n	8001aca <HAL_GPIO_Init+0x152>
 8001a5a:	4d21      	ldr	r5, [pc, #132]	; (8001ae0 <HAL_GPIO_Init+0x168>)
 8001a5c:	42a8      	cmp	r0, r5
 8001a5e:	d036      	beq.n	8001ace <HAL_GPIO_Init+0x156>
 8001a60:	f505 6580 	add.w	r5, r5, #1024	; 0x400
 8001a64:	42a8      	cmp	r0, r5
 8001a66:	d034      	beq.n	8001ad2 <HAL_GPIO_Init+0x15a>
 8001a68:	f505 6580 	add.w	r5, r5, #1024	; 0x400
 8001a6c:	42a8      	cmp	r0, r5
 8001a6e:	d032      	beq.n	8001ad6 <HAL_GPIO_Init+0x15e>
 8001a70:	f505 6580 	add.w	r5, r5, #1024	; 0x400
 8001a74:	42a8      	cmp	r0, r5
 8001a76:	bf0c      	ite	eq
 8001a78:	2504      	moveq	r5, #4
 8001a7a:	2507      	movne	r5, #7
 8001a7c:	fa05 f50c 	lsl.w	r5, r5, ip
 8001a80:	ea45 050e 	orr.w	r5, r5, lr
 8001a84:	60bd      	str	r5, [r7, #8]
 8001a86:	6825      	ldr	r5, [r4, #0]
 8001a88:	43d7      	mvns	r7, r2
 8001a8a:	f416 1f80 	tst.w	r6, #1048576	; 0x100000
 8001a8e:	bf0c      	ite	eq
 8001a90:	403d      	andeq	r5, r7
 8001a92:	4315      	orrne	r5, r2
 8001a94:	6025      	str	r5, [r4, #0]
 8001a96:	6865      	ldr	r5, [r4, #4]
 8001a98:	f416 1f00 	tst.w	r6, #2097152	; 0x200000
 8001a9c:	bf0c      	ite	eq
 8001a9e:	403d      	andeq	r5, r7
 8001aa0:	4315      	orrne	r5, r2
 8001aa2:	6065      	str	r5, [r4, #4]
 8001aa4:	f8d4 5080 	ldr.w	r5, [r4, #128]	; 0x80
 8001aa8:	f416 3f80 	tst.w	r6, #65536	; 0x10000
 8001aac:	bf0c      	ite	eq
 8001aae:	403d      	andeq	r5, r7
 8001ab0:	4315      	orrne	r5, r2
 8001ab2:	f8c4 5080 	str.w	r5, [r4, #128]	; 0x80
 8001ab6:	f8d4 5084 	ldr.w	r5, [r4, #132]	; 0x84
 8001aba:	03b6      	lsls	r6, r6, #14
 8001abc:	bf54      	ite	pl
 8001abe:	403d      	andpl	r5, r7
 8001ac0:	4315      	orrmi	r5, r2
 8001ac2:	f8c4 5084 	str.w	r5, [r4, #132]	; 0x84
 8001ac6:	3301      	adds	r3, #1
 8001ac8:	e75c      	b.n	8001984 <HAL_GPIO_Init+0xc>
 8001aca:	2500      	movs	r5, #0
 8001acc:	e7d6      	b.n	8001a7c <HAL_GPIO_Init+0x104>
 8001ace:	2501      	movs	r5, #1
 8001ad0:	e7d4      	b.n	8001a7c <HAL_GPIO_Init+0x104>
 8001ad2:	2502      	movs	r5, #2
 8001ad4:	e7d2      	b.n	8001a7c <HAL_GPIO_Init+0x104>
 8001ad6:	2503      	movs	r5, #3
 8001ad8:	e7d0      	b.n	8001a7c <HAL_GPIO_Init+0x104>
 8001ada:	bf00      	nop
 8001adc:	58000800 	.word	0x58000800
 8001ae0:	48000400 	.word	0x48000400

08001ae4 <HAL_GPIO_ReadPin>:
 8001ae4:	6903      	ldr	r3, [r0, #16]
 8001ae6:	4219      	tst	r1, r3
 8001ae8:	bf14      	ite	ne
 8001aea:	2001      	movne	r0, #1
 8001aec:	2000      	moveq	r0, #0
 8001aee:	4770      	bx	lr

08001af0 <HAL_GPIO_WritePin>:
 8001af0:	b10a      	cbz	r2, 8001af6 <HAL_GPIO_WritePin+0x6>
 8001af2:	6181      	str	r1, [r0, #24]
 8001af4:	4770      	bx	lr
 8001af6:	6281      	str	r1, [r0, #40]	; 0x28
 8001af8:	4770      	bx	lr

08001afa <HAL_GPIO_TogglePin>:
 8001afa:	6943      	ldr	r3, [r0, #20]
 8001afc:	ea01 0203 	and.w	r2, r1, r3
 8001b00:	ea21 0103 	bic.w	r1, r1, r3
 8001b04:	ea41 4102 	orr.w	r1, r1, r2, lsl #16
 8001b08:	6181      	str	r1, [r0, #24]
 8001b0a:	4770      	bx	lr

08001b0c <HAL_HSEM_FreeCallback>:
 8001b0c:	4770      	bx	lr
	...

08001b10 <HAL_HSEM_IRQHandler>:
 8001b10:	b508      	push	{r3, lr}
 8001b12:	4b05      	ldr	r3, [pc, #20]	; (8001b28 <HAL_HSEM_IRQHandler+0x18>)
 8001b14:	68d8      	ldr	r0, [r3, #12]
 8001b16:	681a      	ldr	r2, [r3, #0]
 8001b18:	ea22 0200 	bic.w	r2, r2, r0
 8001b1c:	601a      	str	r2, [r3, #0]
 8001b1e:	6058      	str	r0, [r3, #4]
 8001b20:	f7ff fff4 	bl	8001b0c <HAL_HSEM_FreeCallback>
 8001b24:	bd08      	pop	{r3, pc}
 8001b26:	bf00      	nop
 8001b28:	58001500 	.word	0x58001500

08001b2c <I2C_Flush_TXDR>:
 8001b2c:	6803      	ldr	r3, [r0, #0]
 8001b2e:	699a      	ldr	r2, [r3, #24]
 8001b30:	0791      	lsls	r1, r2, #30
 8001b32:	bf44      	itt	mi
 8001b34:	2200      	movmi	r2, #0
 8001b36:	629a      	strmi	r2, [r3, #40]	; 0x28
 8001b38:	699a      	ldr	r2, [r3, #24]
 8001b3a:	07d2      	lsls	r2, r2, #31
 8001b3c:	bf5e      	ittt	pl
 8001b3e:	699a      	ldrpl	r2, [r3, #24]
 8001b40:	f042 0201 	orrpl.w	r2, r2, #1
 8001b44:	619a      	strpl	r2, [r3, #24]
 8001b46:	4770      	bx	lr

08001b48 <I2C_TransferConfig>:
 8001b48:	b530      	push	{r4, r5, lr}
 8001b4a:	9d03      	ldr	r5, [sp, #12]
 8001b4c:	6804      	ldr	r4, [r0, #0]
 8001b4e:	432b      	orrs	r3, r5
 8001b50:	ea43 4302 	orr.w	r3, r3, r2, lsl #16
 8001b54:	4a06      	ldr	r2, [pc, #24]	; (8001b70 <I2C_TransferConfig+0x28>)
 8001b56:	6860      	ldr	r0, [r4, #4]
 8001b58:	f3c1 0109 	ubfx	r1, r1, #0, #10
 8001b5c:	430b      	orrs	r3, r1
 8001b5e:	ea42 5255 	orr.w	r2, r2, r5, lsr #21
 8001b62:	f023 4300 	bic.w	r3, r3, #2147483648	; 0x80000000
 8001b66:	ea20 0002 	bic.w	r0, r0, r2
 8001b6a:	4303      	orrs	r3, r0
 8001b6c:	6063      	str	r3, [r4, #4]
 8001b6e:	bd30      	pop	{r4, r5, pc}
 8001b70:	03ff63ff 	.word	0x03ff63ff

08001b74 <I2C_IsErrorOccurred>:
 8001b74:	6803      	ldr	r3, [r0, #0]
 8001b76:	e92d 41f0 	stmdb	sp!, {r4, r5, r6, r7, r8, lr}
 8001b7a:	699c      	ldr	r4, [r3, #24]
 8001b7c:	f014 0410 	ands.w	r4, r4, #16
 8001b80:	4605      	mov	r5, r0
 8001b82:	460f      	mov	r7, r1
 8001b84:	4690      	mov	r8, r2
 8001b86:	d05e      	beq.n	8001c46 <I2C_IsErrorOccurred+0xd2>
 8001b88:	685a      	ldr	r2, [r3, #4]
 8001b8a:	0190      	lsls	r0, r2, #6
 8001b8c:	bf58      	it	pl
 8001b8e:	685a      	ldrpl	r2, [r3, #4]
 8001b90:	f04f 0400 	mov.w	r4, #0
 8001b94:	bf5c      	itt	pl
 8001b96:	f442 4280 	orrpl.w	r2, r2, #16384	; 0x4000
 8001b9a:	605a      	strpl	r2, [r3, #4]
 8001b9c:	4626      	mov	r6, r4
 8001b9e:	682b      	ldr	r3, [r5, #0]
 8001ba0:	699a      	ldr	r2, [r3, #24]
 8001ba2:	0692      	lsls	r2, r2, #26
 8001ba4:	d44a      	bmi.n	8001c3c <I2C_IsErrorOccurred+0xc8>
 8001ba6:	2e00      	cmp	r6, #0
 8001ba8:	d038      	beq.n	8001c1c <I2C_IsErrorOccurred+0xa8>
 8001baa:	2210      	movs	r2, #16
 8001bac:	61da      	str	r2, [r3, #28]
 8001bae:	f044 0404 	orr.w	r4, r4, #4
 8001bb2:	2001      	movs	r0, #1
 8001bb4:	682b      	ldr	r3, [r5, #0]
 8001bb6:	699a      	ldr	r2, [r3, #24]
 8001bb8:	05d6      	lsls	r6, r2, #23
 8001bba:	bf41      	itttt	mi
 8001bbc:	f44f 7180 	movmi.w	r1, #256	; 0x100
 8001bc0:	61d9      	strmi	r1, [r3, #28]
 8001bc2:	f044 0401 	orrmi.w	r4, r4, #1
 8001bc6:	2001      	movmi	r0, #1
 8001bc8:	0551      	lsls	r1, r2, #21
 8001bca:	bf41      	itttt	mi
 8001bcc:	f44f 6180 	movmi.w	r1, #1024	; 0x400
 8001bd0:	f044 0408 	orrmi.w	r4, r4, #8
 8001bd4:	61d9      	strmi	r1, [r3, #28]
 8001bd6:	2001      	movmi	r0, #1
 8001bd8:	0592      	lsls	r2, r2, #22
 8001bda:	d536      	bpl.n	8001c4a <I2C_IsErrorOccurred+0xd6>
 8001bdc:	f44f 7200 	mov.w	r2, #512	; 0x200
 8001be0:	f044 0402 	orr.w	r4, r4, #2
 8001be4:	61da      	str	r2, [r3, #28]
 8001be6:	4628      	mov	r0, r5
 8001be8:	f7ff ffa0 	bl	8001b2c <I2C_Flush_TXDR>
 8001bec:	682a      	ldr	r2, [r5, #0]
 8001bee:	6853      	ldr	r3, [r2, #4]
 8001bf0:	f023 73ff 	bic.w	r3, r3, #33423360	; 0x1fe0000
 8001bf4:	f423 338b 	bic.w	r3, r3, #71168	; 0x11600
 8001bf8:	f423 73ff 	bic.w	r3, r3, #510	; 0x1fe
 8001bfc:	f023 0301 	bic.w	r3, r3, #1
 8001c00:	6053      	str	r3, [r2, #4]
 8001c02:	6c6b      	ldr	r3, [r5, #68]	; 0x44
 8001c04:	431c      	orrs	r4, r3
 8001c06:	2320      	movs	r3, #32
 8001c08:	646c      	str	r4, [r5, #68]	; 0x44
 8001c0a:	f885 3041 	strb.w	r3, [r5, #65]	; 0x41
 8001c0e:	2300      	movs	r3, #0
 8001c10:	f885 3042 	strb.w	r3, [r5, #66]	; 0x42
 8001c14:	f885 3040 	strb.w	r3, [r5, #64]	; 0x40
 8001c18:	2001      	movs	r0, #1
 8001c1a:	e018      	b.n	8001c4e <I2C_IsErrorOccurred+0xda>
 8001c1c:	1c79      	adds	r1, r7, #1
 8001c1e:	d0bf      	beq.n	8001ba0 <I2C_IsErrorOccurred+0x2c>
 8001c20:	f7ff fdfe 	bl	8001820 <HAL_GetTick>
 8001c24:	eba0 0008 	sub.w	r0, r0, r8
 8001c28:	42b8      	cmp	r0, r7
 8001c2a:	d804      	bhi.n	8001c36 <I2C_IsErrorOccurred+0xc2>
 8001c2c:	2f00      	cmp	r7, #0
 8001c2e:	bf04      	itt	eq
 8001c30:	2420      	moveq	r4, #32
 8001c32:	2601      	moveq	r6, #1
 8001c34:	e7b3      	b.n	8001b9e <I2C_IsErrorOccurred+0x2a>
 8001c36:	2420      	movs	r4, #32
 8001c38:	2601      	movs	r6, #1
 8001c3a:	e7b0      	b.n	8001b9e <I2C_IsErrorOccurred+0x2a>
 8001c3c:	2e00      	cmp	r6, #0
 8001c3e:	d1b4      	bne.n	8001baa <I2C_IsErrorOccurred+0x36>
 8001c40:	2220      	movs	r2, #32
 8001c42:	61da      	str	r2, [r3, #28]
 8001c44:	e7b1      	b.n	8001baa <I2C_IsErrorOccurred+0x36>
 8001c46:	4620      	mov	r0, r4
 8001c48:	e7b4      	b.n	8001bb4 <I2C_IsErrorOccurred+0x40>
 8001c4a:	2800      	cmp	r0, #0
 8001c4c:	d1cb      	bne.n	8001be6 <I2C_IsErrorOccurred+0x72>
 8001c4e:	e8bd 81f0 	ldmia.w	sp!, {r4, r5, r6, r7, r8, pc}

08001c52 <I2C_WaitOnTXISFlagUntilTimeout>:
 8001c52:	b570      	push	{r4, r5, r6, lr}
 8001c54:	4604      	mov	r4, r0
 8001c56:	460d      	mov	r5, r1
 8001c58:	4616      	mov	r6, r2
 8001c5a:	6823      	ldr	r3, [r4, #0]
 8001c5c:	699b      	ldr	r3, [r3, #24]
 8001c5e:	079b      	lsls	r3, r3, #30
 8001c60:	d501      	bpl.n	8001c66 <I2C_WaitOnTXISFlagUntilTimeout+0x14>
 8001c62:	2000      	movs	r0, #0
 8001c64:	bd70      	pop	{r4, r5, r6, pc}
 8001c66:	4632      	mov	r2, r6
 8001c68:	4629      	mov	r1, r5
 8001c6a:	4620      	mov	r0, r4
 8001c6c:	f7ff ff82 	bl	8001b74 <I2C_IsErrorOccurred>
 8001c70:	b9a0      	cbnz	r0, 8001c9c <I2C_WaitOnTXISFlagUntilTimeout+0x4a>
 8001c72:	1c6a      	adds	r2, r5, #1
 8001c74:	d0f1      	beq.n	8001c5a <I2C_WaitOnTXISFlagUntilTimeout+0x8>
 8001c76:	f7ff fdd3 	bl	8001820 <HAL_GetTick>
 8001c7a:	1b80      	subs	r0, r0, r6
 8001c7c:	42a8      	cmp	r0, r5
 8001c7e:	d801      	bhi.n	8001c84 <I2C_WaitOnTXISFlagUntilTimeout+0x32>
 8001c80:	2d00      	cmp	r5, #0
 8001c82:	d1ea      	bne.n	8001c5a <I2C_WaitOnTXISFlagUntilTimeout+0x8>
 8001c84:	6c63      	ldr	r3, [r4, #68]	; 0x44
 8001c86:	f043 0320 	orr.w	r3, r3, #32
 8001c8a:	6463      	str	r3, [r4, #68]	; 0x44
 8001c8c:	2320      	movs	r3, #32
 8001c8e:	f884 3041 	strb.w	r3, [r4, #65]	; 0x41
 8001c92:	2300      	movs	r3, #0
 8001c94:	f884 3042 	strb.w	r3, [r4, #66]	; 0x42
 8001c98:	f884 3040 	strb.w	r3, [r4, #64]	; 0x40
 8001c9c:	2001      	movs	r0, #1
 8001c9e:	e7e1      	b.n	8001c64 <I2C_WaitOnTXISFlagUntilTimeout+0x12>

08001ca0 <I2C_WaitOnFlagUntilTimeout>:
 8001ca0:	e92d 41f0 	stmdb	sp!, {r4, r5, r6, r7, r8, lr}
 8001ca4:	9f06      	ldr	r7, [sp, #24]
 8001ca6:	4604      	mov	r4, r0
 8001ca8:	4688      	mov	r8, r1
 8001caa:	4616      	mov	r6, r2
 8001cac:	461d      	mov	r5, r3
 8001cae:	6822      	ldr	r2, [r4, #0]
 8001cb0:	6993      	ldr	r3, [r2, #24]
 8001cb2:	ea38 0303 	bics.w	r3, r8, r3
 8001cb6:	bf0c      	ite	eq
 8001cb8:	2301      	moveq	r3, #1
 8001cba:	2300      	movne	r3, #0
 8001cbc:	42b3      	cmp	r3, r6
 8001cbe:	d001      	beq.n	8001cc4 <I2C_WaitOnFlagUntilTimeout+0x24>
 8001cc0:	2000      	movs	r0, #0
 8001cc2:	e015      	b.n	8001cf0 <I2C_WaitOnFlagUntilTimeout+0x50>
 8001cc4:	1c6b      	adds	r3, r5, #1
 8001cc6:	d0f3      	beq.n	8001cb0 <I2C_WaitOnFlagUntilTimeout+0x10>
 8001cc8:	f7ff fdaa 	bl	8001820 <HAL_GetTick>
 8001ccc:	1bc0      	subs	r0, r0, r7
 8001cce:	42a8      	cmp	r0, r5
 8001cd0:	d801      	bhi.n	8001cd6 <I2C_WaitOnFlagUntilTimeout+0x36>
 8001cd2:	2d00      	cmp	r5, #0
 8001cd4:	d1eb      	bne.n	8001cae <I2C_WaitOnFlagUntilTimeout+0xe>
 8001cd6:	6c63      	ldr	r3, [r4, #68]	; 0x44
 8001cd8:	f043 0320 	orr.w	r3, r3, #32
 8001cdc:	6463      	str	r3, [r4, #68]	; 0x44
 8001cde:	2320      	movs	r3, #32
 8001ce0:	f884 3041 	strb.w	r3, [r4, #65]	; 0x41
 8001ce4:	2300      	movs	r3, #0
 8001ce6:	f884 3042 	strb.w	r3, [r4, #66]	; 0x42
 8001cea:	f884 3040 	strb.w	r3, [r4, #64]	; 0x40
 8001cee:	2001      	movs	r0, #1
 8001cf0:	e8bd 81f0 	ldmia.w	sp!, {r4, r5, r6, r7, r8, pc}

08001cf4 <I2C_RequestMemoryWrite>:
 8001cf4:	e92d 41f3 	stmdb	sp!, {r0, r1, r4, r5, r6, r7, r8, lr}
 8001cf8:	e9dd 7808 	ldrd	r7, r8, [sp, #32]
 8001cfc:	461e      	mov	r6, r3
 8001cfe:	4b17      	ldr	r3, [pc, #92]	; (8001d5c <I2C_RequestMemoryWrite+0x68>)
 8001d00:	9300      	str	r3, [sp, #0]
 8001d02:	4605      	mov	r5, r0
 8001d04:	4614      	mov	r4, r2
 8001d06:	f04f 7380 	mov.w	r3, #16777216	; 0x1000000
 8001d0a:	b2f2      	uxtb	r2, r6
 8001d0c:	f7ff ff1c 	bl	8001b48 <I2C_TransferConfig>
 8001d10:	4642      	mov	r2, r8
 8001d12:	4639      	mov	r1, r7
 8001d14:	4628      	mov	r0, r5
 8001d16:	f7ff ff9c 	bl	8001c52 <I2C_WaitOnTXISFlagUntilTimeout>
 8001d1a:	b118      	cbz	r0, 8001d24 <I2C_RequestMemoryWrite+0x30>
 8001d1c:	2001      	movs	r0, #1
 8001d1e:	b002      	add	sp, #8
 8001d20:	e8bd 81f0 	ldmia.w	sp!, {r4, r5, r6, r7, r8, pc}
 8001d24:	2e01      	cmp	r6, #1
 8001d26:	682b      	ldr	r3, [r5, #0]
 8001d28:	d10d      	bne.n	8001d46 <I2C_RequestMemoryWrite+0x52>
 8001d2a:	b2e4      	uxtb	r4, r4
 8001d2c:	629c      	str	r4, [r3, #40]	; 0x28
 8001d2e:	2200      	movs	r2, #0
 8001d30:	f8cd 8000 	str.w	r8, [sp]
 8001d34:	463b      	mov	r3, r7
 8001d36:	2180      	movs	r1, #128	; 0x80
 8001d38:	4628      	mov	r0, r5
 8001d3a:	f7ff ffb1 	bl	8001ca0 <I2C_WaitOnFlagUntilTimeout>
 8001d3e:	3800      	subs	r0, #0
 8001d40:	bf18      	it	ne
 8001d42:	2001      	movne	r0, #1
 8001d44:	e7eb      	b.n	8001d1e <I2C_RequestMemoryWrite+0x2a>
 8001d46:	0a22      	lsrs	r2, r4, #8
 8001d48:	629a      	str	r2, [r3, #40]	; 0x28
 8001d4a:	4639      	mov	r1, r7
 8001d4c:	4642      	mov	r2, r8
 8001d4e:	4628      	mov	r0, r5
 8001d50:	f7ff ff7f 	bl	8001c52 <I2C_WaitOnTXISFlagUntilTimeout>
 8001d54:	2800      	cmp	r0, #0
 8001d56:	d1e1      	bne.n	8001d1c <I2C_RequestMemoryWrite+0x28>
 8001d58:	682b      	ldr	r3, [r5, #0]
 8001d5a:	e7e6      	b.n	8001d2a <I2C_RequestMemoryWrite+0x36>
 8001d5c:	80002000 	.word	0x80002000

08001d60 <I2C_WaitOnSTOPFlagUntilTimeout>:
 8001d60:	b570      	push	{r4, r5, r6, lr}
 8001d62:	4604      	mov	r4, r0
 8001d64:	460d      	mov	r5, r1
 8001d66:	4616      	mov	r6, r2
 8001d68:	6823      	ldr	r3, [r4, #0]
 8001d6a:	699b      	ldr	r3, [r3, #24]
 8001d6c:	069b      	lsls	r3, r3, #26
 8001d6e:	d501      	bpl.n	8001d74 <I2C_WaitOnSTOPFlagUntilTimeout+0x14>
 8001d70:	2000      	movs	r0, #0
 8001d72:	bd70      	pop	{r4, r5, r6, pc}
 8001d74:	4632      	mov	r2, r6
 8001d76:	4629      	mov	r1, r5
 8001d78:	4620      	mov	r0, r4
 8001d7a:	f7ff fefb 	bl	8001b74 <I2C_IsErrorOccurred>
 8001d7e:	b990      	cbnz	r0, 8001da6 <I2C_WaitOnSTOPFlagUntilTimeout+0x46>
 8001d80:	f7ff fd4e 	bl	8001820 <HAL_GetTick>
 8001d84:	1b80      	subs	r0, r0, r6
 8001d86:	42a8      	cmp	r0, r5
 8001d88:	d801      	bhi.n	8001d8e <I2C_WaitOnSTOPFlagUntilTimeout+0x2e>
 8001d8a:	2d00      	cmp	r5, #0
 8001d8c:	d1ec      	bne.n	8001d68 <I2C_WaitOnSTOPFlagUntilTimeout+0x8>
 8001d8e:	6c63      	ldr	r3, [r4, #68]	; 0x44
 8001d90:	f043 0320 	orr.w	r3, r3, #32
 8001d94:	6463      	str	r3, [r4, #68]	; 0x44
 8001d96:	2320      	movs	r3, #32
 8001d98:	f884 3041 	strb.w	r3, [r4, #65]	; 0x41
 8001d9c:	2300      	movs	r3, #0
 8001d9e:	f884 3042 	strb.w	r3, [r4, #66]	; 0x42
 8001da2:	f884 3040 	strb.w	r3, [r4, #64]	; 0x40
 8001da6:	2001      	movs	r0, #1
 8001da8:	e7e3      	b.n	8001d72 <I2C_WaitOnSTOPFlagUntilTimeout+0x12>

08001daa <HAL_I2C_Init>:
 8001daa:	b510      	push	{r4, lr}
 8001dac:	4604      	mov	r4, r0
 8001dae:	2800      	cmp	r0, #0
 8001db0:	d04a      	beq.n	8001e48 <HAL_I2C_Init+0x9e>
 8001db2:	f890 3041 	ldrb.w	r3, [r0, #65]	; 0x41
 8001db6:	f003 02ff 	and.w	r2, r3, #255	; 0xff
 8001dba:	b91b      	cbnz	r3, 8001dc4 <HAL_I2C_Init+0x1a>
 8001dbc:	f880 2040 	strb.w	r2, [r0, #64]	; 0x40
 8001dc0:	f7ff fb68 	bl	8001494 <HAL_I2C_MspInit>
 8001dc4:	2324      	movs	r3, #36	; 0x24
 8001dc6:	f884 3041 	strb.w	r3, [r4, #65]	; 0x41
 8001dca:	6823      	ldr	r3, [r4, #0]
 8001dcc:	681a      	ldr	r2, [r3, #0]
 8001dce:	f022 0201 	bic.w	r2, r2, #1
 8001dd2:	601a      	str	r2, [r3, #0]
 8001dd4:	6862      	ldr	r2, [r4, #4]
 8001dd6:	f022 6270 	bic.w	r2, r2, #251658240	; 0xf000000
 8001dda:	611a      	str	r2, [r3, #16]
 8001ddc:	689a      	ldr	r2, [r3, #8]
 8001dde:	f422 4200 	bic.w	r2, r2, #32768	; 0x8000
 8001de2:	609a      	str	r2, [r3, #8]
 8001de4:	e9d4 2102 	ldrd	r2, r1, [r4, #8]
 8001de8:	2901      	cmp	r1, #1
 8001dea:	d124      	bne.n	8001e36 <HAL_I2C_Init+0x8c>
 8001dec:	f442 4200 	orr.w	r2, r2, #32768	; 0x8000
 8001df0:	609a      	str	r2, [r3, #8]
 8001df2:	685a      	ldr	r2, [r3, #4]
 8001df4:	f042 7200 	orr.w	r2, r2, #33554432	; 0x2000000
 8001df8:	f442 4200 	orr.w	r2, r2, #32768	; 0x8000
 8001dfc:	605a      	str	r2, [r3, #4]
 8001dfe:	68da      	ldr	r2, [r3, #12]
 8001e00:	f422 4200 	bic.w	r2, r2, #32768	; 0x8000
 8001e04:	60da      	str	r2, [r3, #12]
 8001e06:	e9d4 2104 	ldrd	r2, r1, [r4, #16]
 8001e0a:	430a      	orrs	r2, r1
 8001e0c:	69a1      	ldr	r1, [r4, #24]
 8001e0e:	ea42 2201 	orr.w	r2, r2, r1, lsl #8
 8001e12:	60da      	str	r2, [r3, #12]
 8001e14:	e9d4 2107 	ldrd	r2, r1, [r4, #28]
 8001e18:	430a      	orrs	r2, r1
 8001e1a:	601a      	str	r2, [r3, #0]
 8001e1c:	681a      	ldr	r2, [r3, #0]
 8001e1e:	f042 0201 	orr.w	r2, r2, #1
 8001e22:	601a      	str	r2, [r3, #0]
 8001e24:	2000      	movs	r0, #0
 8001e26:	2320      	movs	r3, #32
 8001e28:	6460      	str	r0, [r4, #68]	; 0x44
 8001e2a:	f884 3041 	strb.w	r3, [r4, #65]	; 0x41
 8001e2e:	6320      	str	r0, [r4, #48]	; 0x30
 8001e30:	f884 0042 	strb.w	r0, [r4, #66]	; 0x42
 8001e34:	bd10      	pop	{r4, pc}
 8001e36:	f442 4204 	orr.w	r2, r2, #33792	; 0x8400
 8001e3a:	2902      	cmp	r1, #2
 8001e3c:	609a      	str	r2, [r3, #8]
 8001e3e:	bf04      	itt	eq
 8001e40:	f44f 6200 	moveq.w	r2, #2048	; 0x800
 8001e44:	605a      	streq	r2, [r3, #4]
 8001e46:	e7d4      	b.n	8001df2 <HAL_I2C_Init+0x48>
 8001e48:	2001      	movs	r0, #1
 8001e4a:	e7f3      	b.n	8001e34 <HAL_I2C_Init+0x8a>

08001e4c <HAL_I2C_Mem_Write>:
 8001e4c:	e92d 4ff0 	stmdb	sp!, {r4, r5, r6, r7, r8, r9, sl, fp, lr}
 8001e50:	b085      	sub	sp, #20
 8001e52:	469b      	mov	fp, r3
 8001e54:	f8bd 303c 	ldrh.w	r3, [sp, #60]	; 0x3c
 8001e58:	9303      	str	r3, [sp, #12]
 8001e5a:	f890 3041 	ldrb.w	r3, [r0, #65]	; 0x41
 8001e5e:	f8dd 9040 	ldr.w	r9, [sp, #64]	; 0x40
 8001e62:	2b20      	cmp	r3, #32
 8001e64:	4604      	mov	r4, r0
 8001e66:	460f      	mov	r7, r1
 8001e68:	4692      	mov	sl, r2
 8001e6a:	f040 80a3 	bne.w	8001fb4 <HAL_I2C_Mem_Write+0x168>
 8001e6e:	9b0e      	ldr	r3, [sp, #56]	; 0x38
 8001e70:	b10b      	cbz	r3, 8001e76 <HAL_I2C_Mem_Write+0x2a>
 8001e72:	9b03      	ldr	r3, [sp, #12]
 8001e74:	b933      	cbnz	r3, 8001e84 <HAL_I2C_Mem_Write+0x38>
 8001e76:	f44f 7300 	mov.w	r3, #512	; 0x200
 8001e7a:	6463      	str	r3, [r4, #68]	; 0x44
 8001e7c:	2001      	movs	r0, #1
 8001e7e:	b005      	add	sp, #20
 8001e80:	e8bd 8ff0 	ldmia.w	sp!, {r4, r5, r6, r7, r8, r9, sl, fp, pc}
 8001e84:	f890 3040 	ldrb.w	r3, [r0, #64]	; 0x40
 8001e88:	2b01      	cmp	r3, #1
 8001e8a:	f000 8093 	beq.w	8001fb4 <HAL_I2C_Mem_Write+0x168>
 8001e8e:	2501      	movs	r5, #1
 8001e90:	f880 5040 	strb.w	r5, [r0, #64]	; 0x40
 8001e94:	f7ff fcc4 	bl	8001820 <HAL_GetTick>
 8001e98:	2319      	movs	r3, #25
 8001e9a:	9000      	str	r0, [sp, #0]
 8001e9c:	4606      	mov	r6, r0
 8001e9e:	462a      	mov	r2, r5
 8001ea0:	f44f 4100 	mov.w	r1, #32768	; 0x8000
 8001ea4:	4620      	mov	r0, r4
 8001ea6:	f7ff fefb 	bl	8001ca0 <I2C_WaitOnFlagUntilTimeout>
 8001eaa:	4680      	mov	r8, r0
 8001eac:	2800      	cmp	r0, #0
 8001eae:	d1e5      	bne.n	8001e7c <HAL_I2C_Mem_Write+0x30>
 8001eb0:	2321      	movs	r3, #33	; 0x21
 8001eb2:	f884 3041 	strb.w	r3, [r4, #65]	; 0x41
 8001eb6:	2340      	movs	r3, #64	; 0x40
 8001eb8:	f884 3042 	strb.w	r3, [r4, #66]	; 0x42
 8001ebc:	9b0e      	ldr	r3, [sp, #56]	; 0x38
 8001ebe:	6263      	str	r3, [r4, #36]	; 0x24
 8001ec0:	9b03      	ldr	r3, [sp, #12]
 8001ec2:	6460      	str	r0, [r4, #68]	; 0x44
 8001ec4:	6360      	str	r0, [r4, #52]	; 0x34
 8001ec6:	8563      	strh	r3, [r4, #42]	; 0x2a
 8001ec8:	e9cd 9600 	strd	r9, r6, [sp]
 8001ecc:	465b      	mov	r3, fp
 8001ece:	4652      	mov	r2, sl
 8001ed0:	4639      	mov	r1, r7
 8001ed2:	4620      	mov	r0, r4
 8001ed4:	f7ff ff0e 	bl	8001cf4 <I2C_RequestMemoryWrite>
 8001ed8:	b110      	cbz	r0, 8001ee0 <HAL_I2C_Mem_Write+0x94>
 8001eda:	f884 8040 	strb.w	r8, [r4, #64]	; 0x40
 8001ede:	e7cd      	b.n	8001e7c <HAL_I2C_Mem_Write+0x30>
 8001ee0:	8d63      	ldrh	r3, [r4, #42]	; 0x2a
 8001ee2:	b29b      	uxth	r3, r3
 8001ee4:	2bff      	cmp	r3, #255	; 0xff
 8001ee6:	d955      	bls.n	8001f94 <HAL_I2C_Mem_Write+0x148>
 8001ee8:	22ff      	movs	r2, #255	; 0xff
 8001eea:	8522      	strh	r2, [r4, #40]	; 0x28
 8001eec:	9000      	str	r0, [sp, #0]
 8001eee:	f04f 7380 	mov.w	r3, #16777216	; 0x1000000
 8001ef2:	4639      	mov	r1, r7
 8001ef4:	4620      	mov	r0, r4
 8001ef6:	f7ff fe27 	bl	8001b48 <I2C_TransferConfig>
 8001efa:	4632      	mov	r2, r6
 8001efc:	4649      	mov	r1, r9
 8001efe:	4620      	mov	r0, r4
 8001f00:	f7ff fea7 	bl	8001c52 <I2C_WaitOnTXISFlagUntilTimeout>
 8001f04:	2800      	cmp	r0, #0
 8001f06:	d1b9      	bne.n	8001e7c <HAL_I2C_Mem_Write+0x30>
 8001f08:	6a63      	ldr	r3, [r4, #36]	; 0x24
 8001f0a:	6822      	ldr	r2, [r4, #0]
 8001f0c:	f813 1b01 	ldrb.w	r1, [r3], #1
 8001f10:	6291      	str	r1, [r2, #40]	; 0x28
 8001f12:	6263      	str	r3, [r4, #36]	; 0x24
 8001f14:	8d63      	ldrh	r3, [r4, #42]	; 0x2a
 8001f16:	8d22      	ldrh	r2, [r4, #40]	; 0x28
 8001f18:	3b01      	subs	r3, #1
 8001f1a:	b29b      	uxth	r3, r3
 8001f1c:	8563      	strh	r3, [r4, #42]	; 0x2a
 8001f1e:	8d63      	ldrh	r3, [r4, #42]	; 0x2a
 8001f20:	3a01      	subs	r2, #1
 8001f22:	b292      	uxth	r2, r2
 8001f24:	b29b      	uxth	r3, r3
 8001f26:	8522      	strh	r2, [r4, #40]	; 0x28
 8001f28:	b1ab      	cbz	r3, 8001f56 <HAL_I2C_Mem_Write+0x10a>
 8001f2a:	b9a2      	cbnz	r2, 8001f56 <HAL_I2C_Mem_Write+0x10a>
 8001f2c:	9600      	str	r6, [sp, #0]
 8001f2e:	464b      	mov	r3, r9
 8001f30:	2180      	movs	r1, #128	; 0x80
 8001f32:	4620      	mov	r0, r4
 8001f34:	f7ff feb4 	bl	8001ca0 <I2C_WaitOnFlagUntilTimeout>
 8001f38:	2800      	cmp	r0, #0
 8001f3a:	d19f      	bne.n	8001e7c <HAL_I2C_Mem_Write+0x30>
 8001f3c:	8d63      	ldrh	r3, [r4, #42]	; 0x2a
 8001f3e:	b29b      	uxth	r3, r3
 8001f40:	2bff      	cmp	r3, #255	; 0xff
 8001f42:	d92f      	bls.n	8001fa4 <HAL_I2C_Mem_Write+0x158>
 8001f44:	22ff      	movs	r2, #255	; 0xff
 8001f46:	8522      	strh	r2, [r4, #40]	; 0x28
 8001f48:	9000      	str	r0, [sp, #0]
 8001f4a:	f04f 7380 	mov.w	r3, #16777216	; 0x1000000
 8001f4e:	4639      	mov	r1, r7
 8001f50:	4620      	mov	r0, r4
 8001f52:	f7ff fdf9 	bl	8001b48 <I2C_TransferConfig>
 8001f56:	8d63      	ldrh	r3, [r4, #42]	; 0x2a
 8001f58:	b29b      	uxth	r3, r3
 8001f5a:	2b00      	cmp	r3, #0
 8001f5c:	d1cd      	bne.n	8001efa <HAL_I2C_Mem_Write+0xae>
 8001f5e:	4632      	mov	r2, r6
 8001f60:	4649      	mov	r1, r9
 8001f62:	4620      	mov	r0, r4
 8001f64:	f7ff fefc 	bl	8001d60 <I2C_WaitOnSTOPFlagUntilTimeout>
 8001f68:	2800      	cmp	r0, #0
 8001f6a:	d187      	bne.n	8001e7c <HAL_I2C_Mem_Write+0x30>
 8001f6c:	6823      	ldr	r3, [r4, #0]
 8001f6e:	2120      	movs	r1, #32
 8001f70:	61d9      	str	r1, [r3, #28]
 8001f72:	685a      	ldr	r2, [r3, #4]
 8001f74:	f022 72ff 	bic.w	r2, r2, #33423360	; 0x1fe0000
 8001f78:	f422 328b 	bic.w	r2, r2, #71168	; 0x11600
 8001f7c:	f422 72ff 	bic.w	r2, r2, #510	; 0x1fe
 8001f80:	f022 0201 	bic.w	r2, r2, #1
 8001f84:	605a      	str	r2, [r3, #4]
 8001f86:	f884 1041 	strb.w	r1, [r4, #65]	; 0x41
 8001f8a:	f884 0040 	strb.w	r0, [r4, #64]	; 0x40
 8001f8e:	f884 0042 	strb.w	r0, [r4, #66]	; 0x42
 8001f92:	e774      	b.n	8001e7e <HAL_I2C_Mem_Write+0x32>
 8001f94:	8d62      	ldrh	r2, [r4, #42]	; 0x2a
 8001f96:	9000      	str	r0, [sp, #0]
 8001f98:	b292      	uxth	r2, r2
 8001f9a:	8522      	strh	r2, [r4, #40]	; 0x28
 8001f9c:	f04f 7300 	mov.w	r3, #33554432	; 0x2000000
 8001fa0:	b2d2      	uxtb	r2, r2
 8001fa2:	e7a6      	b.n	8001ef2 <HAL_I2C_Mem_Write+0xa6>
 8001fa4:	8d62      	ldrh	r2, [r4, #42]	; 0x2a
 8001fa6:	9000      	str	r0, [sp, #0]
 8001fa8:	b292      	uxth	r2, r2
 8001faa:	8522      	strh	r2, [r4, #40]	; 0x28
 8001fac:	f04f 7300 	mov.w	r3, #33554432	; 0x2000000
 8001fb0:	b2d2      	uxtb	r2, r2
 8001fb2:	e7cc      	b.n	8001f4e <HAL_I2C_Mem_Write+0x102>
 8001fb4:	2002      	movs	r0, #2
 8001fb6:	e762      	b.n	8001e7e <HAL_I2C_Mem_Write+0x32>

08001fb8 <HAL_I2CEx_ConfigAnalogFilter>:
 8001fb8:	b510      	push	{r4, lr}
 8001fba:	f890 3041 	ldrb.w	r3, [r0, #65]	; 0x41
 8001fbe:	2b20      	cmp	r3, #32
 8001fc0:	b2dc      	uxtb	r4, r3
 8001fc2:	d11d      	bne.n	8002000 <HAL_I2CEx_ConfigAnalogFilter+0x48>
 8001fc4:	f890 3040 	ldrb.w	r3, [r0, #64]	; 0x40
 8001fc8:	2b01      	cmp	r3, #1
 8001fca:	d019      	beq.n	8002000 <HAL_I2CEx_ConfigAnalogFilter+0x48>
 8001fcc:	2324      	movs	r3, #36	; 0x24
 8001fce:	f880 3041 	strb.w	r3, [r0, #65]	; 0x41
 8001fd2:	6803      	ldr	r3, [r0, #0]
 8001fd4:	681a      	ldr	r2, [r3, #0]
 8001fd6:	f022 0201 	bic.w	r2, r2, #1
 8001fda:	601a      	str	r2, [r3, #0]
 8001fdc:	681a      	ldr	r2, [r3, #0]
 8001fde:	f422 5280 	bic.w	r2, r2, #4096	; 0x1000
 8001fe2:	601a      	str	r2, [r3, #0]
 8001fe4:	681a      	ldr	r2, [r3, #0]
 8001fe6:	4311      	orrs	r1, r2
 8001fe8:	6019      	str	r1, [r3, #0]
 8001fea:	681a      	ldr	r2, [r3, #0]
 8001fec:	f042 0201 	orr.w	r2, r2, #1
 8001ff0:	601a      	str	r2, [r3, #0]
 8001ff2:	2300      	movs	r3, #0
 8001ff4:	f880 4041 	strb.w	r4, [r0, #65]	; 0x41
 8001ff8:	f880 3040 	strb.w	r3, [r0, #64]	; 0x40
 8001ffc:	4618      	mov	r0, r3
 8001ffe:	bd10      	pop	{r4, pc}
 8002000:	2002      	movs	r0, #2
 8002002:	e7fc      	b.n	8001ffe <HAL_I2CEx_ConfigAnalogFilter+0x46>

08002004 <HAL_I2CEx_ConfigDigitalFilter>:
 8002004:	b510      	push	{r4, lr}
 8002006:	f890 3041 	ldrb.w	r3, [r0, #65]	; 0x41
 800200a:	2b20      	cmp	r3, #32
 800200c:	b2dc      	uxtb	r4, r3
 800200e:	d11c      	bne.n	800204a <HAL_I2CEx_ConfigDigitalFilter+0x46>
 8002010:	f890 3040 	ldrb.w	r3, [r0, #64]	; 0x40
 8002014:	2b01      	cmp	r3, #1
 8002016:	d018      	beq.n	800204a <HAL_I2CEx_ConfigDigitalFilter+0x46>
 8002018:	2324      	movs	r3, #36	; 0x24
 800201a:	f880 3041 	strb.w	r3, [r0, #65]	; 0x41
 800201e:	6803      	ldr	r3, [r0, #0]
 8002020:	681a      	ldr	r2, [r3, #0]
 8002022:	f022 0201 	bic.w	r2, r2, #1
 8002026:	601a      	str	r2, [r3, #0]
 8002028:	681a      	ldr	r2, [r3, #0]
 800202a:	f422 6270 	bic.w	r2, r2, #3840	; 0xf00
 800202e:	ea42 2101 	orr.w	r1, r2, r1, lsl #8
 8002032:	6019      	str	r1, [r3, #0]
 8002034:	681a      	ldr	r2, [r3, #0]
 8002036:	f042 0201 	orr.w	r2, r2, #1
 800203a:	601a      	str	r2, [r3, #0]
 800203c:	2300      	movs	r3, #0
 800203e:	f880 4041 	strb.w	r4, [r0, #65]	; 0x41
 8002042:	f880 3040 	strb.w	r3, [r0, #64]	; 0x40
 8002046:	4618      	mov	r0, r3
 8002048:	bd10      	pop	{r4, pc}
 800204a:	2002      	movs	r0, #2
 800204c:	e7fc      	b.n	8002048 <HAL_I2CEx_ConfigDigitalFilter+0x44>

0800204e <HAL_IPCC_TxCallback>:
 800204e:	4770      	bx	lr

08002050 <HAL_IPCC_RxCallback>:
 8002050:	4770      	bx	lr
	...

08002054 <IPCC_SetDefaultCallbacks>:
 8002054:	4904      	ldr	r1, [pc, #16]	; (8002068 <IPCC_SetDefaultCallbacks+0x14>)
 8002056:	4a05      	ldr	r2, [pc, #20]	; (800206c <IPCC_SetDefaultCallbacks+0x18>)
 8002058:	1d03      	adds	r3, r0, #4
 800205a:	301c      	adds	r0, #28
 800205c:	f843 1b04 	str.w	r1, [r3], #4
 8002060:	4283      	cmp	r3, r0
 8002062:	615a      	str	r2, [r3, #20]
 8002064:	d1fa      	bne.n	800205c <IPCC_SetDefaultCallbacks+0x8>
 8002066:	4770      	bx	lr
 8002068:	08002051 	.word	0x08002051
 800206c:	0800204f 	.word	0x0800204f

08002070 <HAL_IPCC_Init>:
 8002070:	b538      	push	{r3, r4, r5, lr}
 8002072:	4604      	mov	r4, r0
 8002074:	b1c8      	cbz	r0, 80020aa <HAL_IPCC_Init+0x3a>
 8002076:	f890 3038 	ldrb.w	r3, [r0, #56]	; 0x38
 800207a:	b90b      	cbnz	r3, 8002080 <HAL_IPCC_Init+0x10>
 800207c:	f7ff fa4e 	bl	800151c <HAL_IPCC_MspInit>
 8002080:	4b0b      	ldr	r3, [pc, #44]	; (80020b0 <HAL_IPCC_Init+0x40>)
 8002082:	2500      	movs	r5, #0
 8002084:	f04f 123f 	mov.w	r2, #4128831	; 0x3f003f
 8002088:	601d      	str	r5, [r3, #0]
 800208a:	605a      	str	r2, [r3, #4]
 800208c:	223f      	movs	r2, #63	; 0x3f
 800208e:	609a      	str	r2, [r3, #8]
 8002090:	681a      	ldr	r2, [r3, #0]
 8002092:	f042 1201 	orr.w	r2, r2, #65537	; 0x10001
 8002096:	601a      	str	r2, [r3, #0]
 8002098:	4620      	mov	r0, r4
 800209a:	f7ff ffdb 	bl	8002054 <IPCC_SetDefaultCallbacks>
 800209e:	2301      	movs	r3, #1
 80020a0:	6365      	str	r5, [r4, #52]	; 0x34
 80020a2:	f884 3038 	strb.w	r3, [r4, #56]	; 0x38
 80020a6:	4628      	mov	r0, r5
 80020a8:	bd38      	pop	{r3, r4, r5, pc}
 80020aa:	2001      	movs	r0, #1
 80020ac:	e7fc      	b.n	80020a8 <HAL_IPCC_Init+0x38>
 80020ae:	bf00      	nop
 80020b0:	58000c00 	.word	0x58000c00

080020b4 <HAL_PWR_EnableBkUpAccess>:
 80020b4:	4a02      	ldr	r2, [pc, #8]	; (80020c0 <HAL_PWR_EnableBkUpAccess+0xc>)
 80020b6:	6813      	ldr	r3, [r2, #0]
 80020b8:	f443 7380 	orr.w	r3, r3, #256	; 0x100
 80020bc:	6013      	str	r3, [r2, #0]
 80020be:	4770      	bx	lr
 80020c0:	58000400 	.word	0x58000400

080020c4 <HAL_PWREx_GetVoltageRange>:
 80020c4:	4b02      	ldr	r3, [pc, #8]	; (80020d0 <HAL_PWREx_GetVoltageRange+0xc>)
 80020c6:	6818      	ldr	r0, [r3, #0]
 80020c8:	f400 60c0 	and.w	r0, r0, #1536	; 0x600
 80020cc:	4770      	bx	lr
 80020ce:	bf00      	nop
 80020d0:	58000400 	.word	0x58000400

080020d4 <LL_RCC_HSE_IsReady>:
 80020d4:	f04f 43b0 	mov.w	r3, #1476395008	; 0x58000000
 80020d8:	6818      	ldr	r0, [r3, #0]
 80020da:	f3c0 4040 	ubfx	r0, r0, #17, #1
 80020de:	4770      	bx	lr

080020e0 <LL_RCC_HSI_IsReady>:
 80020e0:	f04f 43b0 	mov.w	r3, #1476395008	; 0x58000000
 80020e4:	6818      	ldr	r0, [r3, #0]
 80020e6:	f3c0 2080 	ubfx	r0, r0, #10, #1
 80020ea:	4770      	bx	lr

080020ec <LL_RCC_LSI1_IsReady>:
 80020ec:	f04f 43b0 	mov.w	r3, #1476395008	; 0x58000000
 80020f0:	f8d3 0094 	ldr.w	r0, [r3, #148]	; 0x94
 80020f4:	f3c0 0040 	ubfx	r0, r0, #1, #1
 80020f8:	4770      	bx	lr

080020fa <LL_RCC_MSI_IsReady>:
 80020fa:	f04f 43b0 	mov.w	r3, #1476395008	; 0x58000000
 80020fe:	6818      	ldr	r0, [r3, #0]
 8002100:	f3c0 0040 	ubfx	r0, r0, #1, #1
 8002104:	4770      	bx	lr

08002106 <LL_RCC_MSI_SetRange>:
 8002106:	f04f 42b0 	mov.w	r2, #1476395008	; 0x58000000
 800210a:	6813      	ldr	r3, [r2, #0]
 800210c:	f023 03f0 	bic.w	r3, r3, #240	; 0xf0
 8002110:	4318      	orrs	r0, r3
 8002112:	6010      	str	r0, [r2, #0]
 8002114:	4770      	bx	lr

08002116 <LL_RCC_MSI_SetCalibTrimming>:
 8002116:	f04f 42b0 	mov.w	r2, #1476395008	; 0x58000000
 800211a:	6853      	ldr	r3, [r2, #4]
 800211c:	f423 437f 	bic.w	r3, r3, #65280	; 0xff00
 8002120:	ea43 2000 	orr.w	r0, r3, r0, lsl #8
 8002124:	6050      	str	r0, [r2, #4]
 8002126:	4770      	bx	lr

08002128 <RCC_SetFlashLatencyFromMSIRange>:
 8002128:	28b0      	cmp	r0, #176	; 0xb0
 800212a:	4b33      	ldr	r3, [pc, #204]	; (80021f8 <RCC_SetFlashLatencyFromMSIRange+0xd0>)
 800212c:	4a33      	ldr	r2, [pc, #204]	; (80021fc <RCC_SetFlashLatencyFromMSIRange+0xd4>)
 800212e:	bf98      	it	ls
 8002130:	0900      	lsrls	r0, r0, #4
 8002132:	b5f0      	push	{r4, r5, r6, r7, lr}
 8002134:	bf8c      	ite	hi
 8002136:	6add      	ldrhi	r5, [r3, #44]	; 0x2c
 8002138:	f853 5020 	ldrls.w	r5, [r3, r0, lsl #2]
 800213c:	4c30      	ldr	r4, [pc, #192]	; (8002200 <RCC_SetFlashLatencyFromMSIRange+0xd8>)
 800213e:	f04f 43b0 	mov.w	r3, #1476395008	; 0x58000000
 8002142:	b089      	sub	sp, #36	; 0x24
 8002144:	f8d3 3108 	ldr.w	r3, [r3, #264]	; 0x108
 8002148:	f003 030f 	and.w	r3, r3, #15
 800214c:	466e      	mov	r6, sp
 800214e:	f852 3023 	ldr.w	r3, [r2, r3, lsl #2]
 8002152:	fbb5 f5f3 	udiv	r5, r5, r3
 8002156:	f7ff ffb5 	bl	80020c4 <HAL_PWREx_GetVoltageRange>
 800215a:	4607      	mov	r7, r0
 800215c:	e894 000f 	ldmia.w	r4, {r0, r1, r2, r3}
 8002160:	3410      	adds	r4, #16
 8002162:	e886 000f 	stmia.w	r6, {r0, r1, r2, r3}
 8002166:	e894 000f 	ldmia.w	r4, {r0, r1, r2, r3}
 800216a:	f5b7 7f00 	cmp.w	r7, #512	; 0x200
 800216e:	ac08      	add	r4, sp, #32
 8002170:	e904 000f 	stmdb	r4, {r0, r1, r2, r3}
 8002174:	d020      	beq.n	80021b8 <RCC_SetFlashLatencyFromMSIRange+0x90>
 8002176:	4b23      	ldr	r3, [pc, #140]	; (8002204 <RCC_SetFlashLatencyFromMSIRange+0xdc>)
 8002178:	429d      	cmp	r5, r3
 800217a:	d32f      	bcc.n	80021dc <RCC_SetFlashLatencyFromMSIRange+0xb4>
 800217c:	f503 03b7 	add.w	r3, r3, #5996544	; 0x5b8000
 8002180:	f603 537f 	addw	r3, r3, #3455	; 0xd7f
 8002184:	429d      	cmp	r5, r3
 8002186:	d92b      	bls.n	80021e0 <RCC_SetFlashLatencyFromMSIRange+0xb8>
 8002188:	f503 1374 	add.w	r3, r3, #3997696	; 0x3d0000
 800218c:	f503 6310 	add.w	r3, r3, #2304	; 0x900
 8002190:	429d      	cmp	r5, r3
 8002192:	d927      	bls.n	80021e4 <RCC_SetFlashLatencyFromMSIRange+0xbc>
 8002194:	2400      	movs	r4, #0
 8002196:	4d1c      	ldr	r5, [pc, #112]	; (8002208 <RCC_SetFlashLatencyFromMSIRange+0xe0>)
 8002198:	682b      	ldr	r3, [r5, #0]
 800219a:	f023 0307 	bic.w	r3, r3, #7
 800219e:	4323      	orrs	r3, r4
 80021a0:	602b      	str	r3, [r5, #0]
 80021a2:	f7ff fb3d 	bl	8001820 <HAL_GetTick>
 80021a6:	4606      	mov	r6, r0
 80021a8:	682b      	ldr	r3, [r5, #0]
 80021aa:	f003 0307 	and.w	r3, r3, #7
 80021ae:	429c      	cmp	r4, r3
 80021b0:	d11a      	bne.n	80021e8 <RCC_SetFlashLatencyFromMSIRange+0xc0>
 80021b2:	2000      	movs	r0, #0
 80021b4:	b009      	add	sp, #36	; 0x24
 80021b6:	bdf0      	pop	{r4, r5, r6, r7, pc}
 80021b8:	4b14      	ldr	r3, [pc, #80]	; (800220c <RCC_SetFlashLatencyFromMSIRange+0xe4>)
 80021ba:	fbb5 f5f3 	udiv	r5, r5, r3
 80021be:	2300      	movs	r3, #0
 80021c0:	f856 2b04 	ldr.w	r2, [r6], #4
 80021c4:	4295      	cmp	r5, r2
 80021c6:	d805      	bhi.n	80021d4 <RCC_SetFlashLatencyFromMSIRange+0xac>
 80021c8:	aa08      	add	r2, sp, #32
 80021ca:	eb02 0383 	add.w	r3, r2, r3, lsl #2
 80021ce:	f853 4c10 	ldr.w	r4, [r3, #-16]
 80021d2:	e7e0      	b.n	8002196 <RCC_SetFlashLatencyFromMSIRange+0x6e>
 80021d4:	3301      	adds	r3, #1
 80021d6:	2b04      	cmp	r3, #4
 80021d8:	d1f2      	bne.n	80021c0 <RCC_SetFlashLatencyFromMSIRange+0x98>
 80021da:	e7db      	b.n	8002194 <RCC_SetFlashLatencyFromMSIRange+0x6c>
 80021dc:	2300      	movs	r3, #0
 80021de:	e7f3      	b.n	80021c8 <RCC_SetFlashLatencyFromMSIRange+0xa0>
 80021e0:	2301      	movs	r3, #1
 80021e2:	e7f1      	b.n	80021c8 <RCC_SetFlashLatencyFromMSIRange+0xa0>
 80021e4:	2302      	movs	r3, #2
 80021e6:	e7ef      	b.n	80021c8 <RCC_SetFlashLatencyFromMSIRange+0xa0>
 80021e8:	f7ff fb1a 	bl	8001820 <HAL_GetTick>
 80021ec:	1b80      	subs	r0, r0, r6
 80021ee:	2802      	cmp	r0, #2
 80021f0:	d9da      	bls.n	80021a8 <RCC_SetFlashLatencyFromMSIRange+0x80>
 80021f2:	2003      	movs	r0, #3
 80021f4:	e7de      	b.n	80021b4 <RCC_SetFlashLatencyFromMSIRange+0x8c>
 80021f6:	bf00      	nop
 80021f8:	08008a10 	.word	0x08008a10
 80021fc:	080089b0 	.word	0x080089b0
 8002200:	080058b8 	.word	0x080058b8
 8002204:	006acfc0 	.word	0x006acfc0
 8002208:	58004000 	.word	0x58004000
 800220c:	000f4240 	.word	0x000f4240

08002210 <HAL_RCC_GetSysClockFreq>:
 8002210:	f04f 43b0 	mov.w	r3, #1476395008	; 0x58000000
 8002214:	689a      	ldr	r2, [r3, #8]
 8002216:	f012 020c 	ands.w	r2, r2, #12
 800221a:	d10a      	bne.n	8002232 <HAL_RCC_GetSysClockFreq+0x22>
 800221c:	681b      	ldr	r3, [r3, #0]
 800221e:	4a22      	ldr	r2, [pc, #136]	; (80022a8 <HAL_RCC_GetSysClockFreq+0x98>)
 8002220:	f003 03f0 	and.w	r3, r3, #240	; 0xf0
 8002224:	2bb0      	cmp	r3, #176	; 0xb0
 8002226:	bf28      	it	cs
 8002228:	23b0      	movcs	r3, #176	; 0xb0
 800222a:	091b      	lsrs	r3, r3, #4
 800222c:	f852 0023 	ldr.w	r0, [r2, r3, lsl #2]
 8002230:	4770      	bx	lr
 8002232:	2a04      	cmp	r2, #4
 8002234:	d035      	beq.n	80022a2 <HAL_RCC_GetSysClockFreq+0x92>
 8002236:	2a08      	cmp	r2, #8
 8002238:	d107      	bne.n	800224a <HAL_RCC_GetSysClockFreq+0x3a>
 800223a:	681b      	ldr	r3, [r3, #0]
 800223c:	481b      	ldr	r0, [pc, #108]	; (80022ac <HAL_RCC_GetSysClockFreq+0x9c>)
 800223e:	f413 1f80 	tst.w	r3, #1048576	; 0x100000
 8002242:	4b1b      	ldr	r3, [pc, #108]	; (80022b0 <HAL_RCC_GetSysClockFreq+0xa0>)
 8002244:	bf08      	it	eq
 8002246:	4618      	moveq	r0, r3
 8002248:	4770      	bx	lr
 800224a:	68da      	ldr	r2, [r3, #12]
 800224c:	f002 0203 	and.w	r2, r2, #3
 8002250:	2a02      	cmp	r2, #2
 8002252:	d024      	beq.n	800229e <HAL_RCC_GetSysClockFreq+0x8e>
 8002254:	2a03      	cmp	r2, #3
 8002256:	681b      	ldr	r3, [r3, #0]
 8002258:	d117      	bne.n	800228a <HAL_RCC_GetSysClockFreq+0x7a>
 800225a:	4815      	ldr	r0, [pc, #84]	; (80022b0 <HAL_RCC_GetSysClockFreq+0xa0>)
 800225c:	4913      	ldr	r1, [pc, #76]	; (80022ac <HAL_RCC_GetSysClockFreq+0x9c>)
 800225e:	f413 1f80 	tst.w	r3, #1048576	; 0x100000
 8002262:	bf08      	it	eq
 8002264:	4601      	moveq	r1, r0
 8002266:	f04f 43b0 	mov.w	r3, #1476395008	; 0x58000000
 800226a:	68d8      	ldr	r0, [r3, #12]
 800226c:	68da      	ldr	r2, [r3, #12]
 800226e:	68db      	ldr	r3, [r3, #12]
 8002270:	f3c0 2006 	ubfx	r0, r0, #8, #7
 8002274:	f3c2 1202 	ubfx	r2, r2, #4, #3
 8002278:	0f5b      	lsrs	r3, r3, #29
 800227a:	4348      	muls	r0, r1
 800227c:	3201      	adds	r2, #1
 800227e:	3301      	adds	r3, #1
 8002280:	fbb0 f0f2 	udiv	r0, r0, r2
 8002284:	fbb0 f0f3 	udiv	r0, r0, r3
 8002288:	4770      	bx	lr
 800228a:	f003 03f0 	and.w	r3, r3, #240	; 0xf0
 800228e:	2bb0      	cmp	r3, #176	; 0xb0
 8002290:	bf28      	it	cs
 8002292:	23b0      	movcs	r3, #176	; 0xb0
 8002294:	4a04      	ldr	r2, [pc, #16]	; (80022a8 <HAL_RCC_GetSysClockFreq+0x98>)
 8002296:	091b      	lsrs	r3, r3, #4
 8002298:	f852 1023 	ldr.w	r1, [r2, r3, lsl #2]
 800229c:	e7e3      	b.n	8002266 <HAL_RCC_GetSysClockFreq+0x56>
 800229e:	4903      	ldr	r1, [pc, #12]	; (80022ac <HAL_RCC_GetSysClockFreq+0x9c>)
 80022a0:	e7e1      	b.n	8002266 <HAL_RCC_GetSysClockFreq+0x56>
 80022a2:	4802      	ldr	r0, [pc, #8]	; (80022ac <HAL_RCC_GetSysClockFreq+0x9c>)
 80022a4:	4770      	bx	lr
 80022a6:	bf00      	nop
 80022a8:	08008a10 	.word	0x08008a10
 80022ac:	00f42400 	.word	0x00f42400
 80022b0:	01e84800 	.word	0x01e84800

080022b4 <HAL_RCC_GetHCLKFreq>:
 80022b4:	b508      	push	{r3, lr}
 80022b6:	f7ff ffab 	bl	8002210 <HAL_RCC_GetSysClockFreq>
 80022ba:	f04f 43b0 	mov.w	r3, #1476395008	; 0x58000000
 80022be:	4a04      	ldr	r2, [pc, #16]	; (80022d0 <HAL_RCC_GetHCLKFreq+0x1c>)
 80022c0:	689b      	ldr	r3, [r3, #8]
 80022c2:	f3c3 1303 	ubfx	r3, r3, #4, #4
 80022c6:	f852 3023 	ldr.w	r3, [r2, r3, lsl #2]
 80022ca:	fbb0 f0f3 	udiv	r0, r0, r3
 80022ce:	bd08      	pop	{r3, pc}
 80022d0:	080089b0 	.word	0x080089b0

080022d4 <HAL_RCC_OscConfig>:
 80022d4:	b5f8      	push	{r3, r4, r5, r6, r7, lr}
 80022d6:	4604      	mov	r4, r0
 80022d8:	b908      	cbnz	r0, 80022de <HAL_RCC_OscConfig+0xa>
 80022da:	2001      	movs	r0, #1
 80022dc:	e088      	b.n	80023f0 <HAL_RCC_OscConfig+0x11c>
 80022de:	6803      	ldr	r3, [r0, #0]
 80022e0:	069f      	lsls	r7, r3, #26
 80022e2:	d531      	bpl.n	8002348 <HAL_RCC_OscConfig+0x74>
 80022e4:	f04f 42b0 	mov.w	r2, #1476395008	; 0x58000000
 80022e8:	6893      	ldr	r3, [r2, #8]
 80022ea:	68d2      	ldr	r2, [r2, #12]
 80022ec:	f013 030c 	ands.w	r3, r3, #12
 80022f0:	d005      	beq.n	80022fe <HAL_RCC_OscConfig+0x2a>
 80022f2:	2b0c      	cmp	r3, #12
 80022f4:	d161      	bne.n	80023ba <HAL_RCC_OscConfig+0xe6>
 80022f6:	f002 0303 	and.w	r3, r2, #3
 80022fa:	2b01      	cmp	r3, #1
 80022fc:	d15d      	bne.n	80023ba <HAL_RCC_OscConfig+0xe6>
 80022fe:	f7ff fefc 	bl	80020fa <LL_RCC_MSI_IsReady>
 8002302:	b110      	cbz	r0, 800230a <HAL_RCC_OscConfig+0x36>
 8002304:	69e3      	ldr	r3, [r4, #28]
 8002306:	2b00      	cmp	r3, #0
 8002308:	d0e7      	beq.n	80022da <HAL_RCC_OscConfig+0x6>
 800230a:	f04f 43b0 	mov.w	r3, #1476395008	; 0x58000000
 800230e:	6a60      	ldr	r0, [r4, #36]	; 0x24
 8002310:	681b      	ldr	r3, [r3, #0]
 8002312:	f003 03f0 	and.w	r3, r3, #240	; 0xf0
 8002316:	2bb0      	cmp	r3, #176	; 0xb0
 8002318:	bf28      	it	cs
 800231a:	23b0      	movcs	r3, #176	; 0xb0
 800231c:	4298      	cmp	r0, r3
 800231e:	d941      	bls.n	80023a4 <HAL_RCC_OscConfig+0xd0>
 8002320:	f7ff ff02 	bl	8002128 <RCC_SetFlashLatencyFromMSIRange>
 8002324:	2800      	cmp	r0, #0
 8002326:	d1d8      	bne.n	80022da <HAL_RCC_OscConfig+0x6>
 8002328:	6a60      	ldr	r0, [r4, #36]	; 0x24
 800232a:	f7ff feec 	bl	8002106 <LL_RCC_MSI_SetRange>
 800232e:	6a20      	ldr	r0, [r4, #32]
 8002330:	f7ff fef1 	bl	8002116 <LL_RCC_MSI_SetCalibTrimming>
 8002334:	f7ff ffbe 	bl	80022b4 <HAL_RCC_GetHCLKFreq>
 8002338:	4bb1      	ldr	r3, [pc, #708]	; (8002600 <HAL_RCC_OscConfig+0x32c>)
 800233a:	6018      	str	r0, [r3, #0]
 800233c:	4bb1      	ldr	r3, [pc, #708]	; (8002604 <HAL_RCC_OscConfig+0x330>)
 800233e:	6818      	ldr	r0, [r3, #0]
 8002340:	f7ff fa26 	bl	8001790 <HAL_InitTick>
 8002344:	2800      	cmp	r0, #0
 8002346:	d1c8      	bne.n	80022da <HAL_RCC_OscConfig+0x6>
 8002348:	6823      	ldr	r3, [r4, #0]
 800234a:	07de      	lsls	r6, r3, #31
 800234c:	d462      	bmi.n	8002414 <HAL_RCC_OscConfig+0x140>
 800234e:	6823      	ldr	r3, [r4, #0]
 8002350:	079d      	lsls	r5, r3, #30
 8002352:	f100 80a0 	bmi.w	8002496 <HAL_RCC_OscConfig+0x1c2>
 8002356:	6823      	ldr	r3, [r4, #0]
 8002358:	f013 0f18 	tst.w	r3, #24
 800235c:	f040 80e1 	bne.w	8002522 <HAL_RCC_OscConfig+0x24e>
 8002360:	6823      	ldr	r3, [r4, #0]
 8002362:	0758      	lsls	r0, r3, #29
 8002364:	f100 817d 	bmi.w	8002662 <HAL_RCC_OscConfig+0x38e>
 8002368:	6823      	ldr	r3, [r4, #0]
 800236a:	0658      	lsls	r0, r3, #25
 800236c:	f140 81e2 	bpl.w	8002734 <HAL_RCC_OscConfig+0x460>
 8002370:	6aa3      	ldr	r3, [r4, #40]	; 0x28
 8002372:	f04f 45b0 	mov.w	r5, #1476395008	; 0x58000000
 8002376:	2b00      	cmp	r3, #0
 8002378:	f000 81c9 	beq.w	800270e <HAL_RCC_OscConfig+0x43a>
 800237c:	f8d5 3098 	ldr.w	r3, [r5, #152]	; 0x98
 8002380:	f043 0301 	orr.w	r3, r3, #1
 8002384:	f8c5 3098 	str.w	r3, [r5, #152]	; 0x98
 8002388:	f7ff fa4a 	bl	8001820 <HAL_GetTick>
 800238c:	4606      	mov	r6, r0
 800238e:	f8d5 3098 	ldr.w	r3, [r5, #152]	; 0x98
 8002392:	0799      	lsls	r1, r3, #30
 8002394:	f100 81ce 	bmi.w	8002734 <HAL_RCC_OscConfig+0x460>
 8002398:	f7ff fa42 	bl	8001820 <HAL_GetTick>
 800239c:	1b83      	subs	r3, r0, r6
 800239e:	2b02      	cmp	r3, #2
 80023a0:	d9f5      	bls.n	800238e <HAL_RCC_OscConfig+0xba>
 80023a2:	e024      	b.n	80023ee <HAL_RCC_OscConfig+0x11a>
 80023a4:	f7ff feaf 	bl	8002106 <LL_RCC_MSI_SetRange>
 80023a8:	6a20      	ldr	r0, [r4, #32]
 80023aa:	f7ff feb4 	bl	8002116 <LL_RCC_MSI_SetCalibTrimming>
 80023ae:	6a60      	ldr	r0, [r4, #36]	; 0x24
 80023b0:	f7ff feba 	bl	8002128 <RCC_SetFlashLatencyFromMSIRange>
 80023b4:	2800      	cmp	r0, #0
 80023b6:	d0bd      	beq.n	8002334 <HAL_RCC_OscConfig+0x60>
 80023b8:	e78f      	b.n	80022da <HAL_RCC_OscConfig+0x6>
 80023ba:	69e2      	ldr	r2, [r4, #28]
 80023bc:	f04f 43b0 	mov.w	r3, #1476395008	; 0x58000000
 80023c0:	b1ba      	cbz	r2, 80023f2 <HAL_RCC_OscConfig+0x11e>
 80023c2:	681a      	ldr	r2, [r3, #0]
 80023c4:	f042 0201 	orr.w	r2, r2, #1
 80023c8:	601a      	str	r2, [r3, #0]
 80023ca:	f7ff fa29 	bl	8001820 <HAL_GetTick>
 80023ce:	4605      	mov	r5, r0
 80023d0:	f7ff fe93 	bl	80020fa <LL_RCC_MSI_IsReady>
 80023d4:	b130      	cbz	r0, 80023e4 <HAL_RCC_OscConfig+0x110>
 80023d6:	6a60      	ldr	r0, [r4, #36]	; 0x24
 80023d8:	f7ff fe95 	bl	8002106 <LL_RCC_MSI_SetRange>
 80023dc:	6a20      	ldr	r0, [r4, #32]
 80023de:	f7ff fe9a 	bl	8002116 <LL_RCC_MSI_SetCalibTrimming>
 80023e2:	e7b1      	b.n	8002348 <HAL_RCC_OscConfig+0x74>
 80023e4:	f7ff fa1c 	bl	8001820 <HAL_GetTick>
 80023e8:	1b40      	subs	r0, r0, r5
 80023ea:	2802      	cmp	r0, #2
 80023ec:	d9f0      	bls.n	80023d0 <HAL_RCC_OscConfig+0xfc>
 80023ee:	2003      	movs	r0, #3
 80023f0:	bdf8      	pop	{r3, r4, r5, r6, r7, pc}
 80023f2:	681a      	ldr	r2, [r3, #0]
 80023f4:	f022 0201 	bic.w	r2, r2, #1
 80023f8:	601a      	str	r2, [r3, #0]
 80023fa:	f7ff fa11 	bl	8001820 <HAL_GetTick>
 80023fe:	4605      	mov	r5, r0
 8002400:	f7ff fe7b 	bl	80020fa <LL_RCC_MSI_IsReady>
 8002404:	2800      	cmp	r0, #0
 8002406:	d09f      	beq.n	8002348 <HAL_RCC_OscConfig+0x74>
 8002408:	f7ff fa0a 	bl	8001820 <HAL_GetTick>
 800240c:	1b40      	subs	r0, r0, r5
 800240e:	2802      	cmp	r0, #2
 8002410:	d9f6      	bls.n	8002400 <HAL_RCC_OscConfig+0x12c>
 8002412:	e7ec      	b.n	80023ee <HAL_RCC_OscConfig+0x11a>
 8002414:	f04f 42b0 	mov.w	r2, #1476395008	; 0x58000000
 8002418:	6893      	ldr	r3, [r2, #8]
 800241a:	68d2      	ldr	r2, [r2, #12]
 800241c:	f003 030c 	and.w	r3, r3, #12
 8002420:	2b08      	cmp	r3, #8
 8002422:	d005      	beq.n	8002430 <HAL_RCC_OscConfig+0x15c>
 8002424:	2b0c      	cmp	r3, #12
 8002426:	d10b      	bne.n	8002440 <HAL_RCC_OscConfig+0x16c>
 8002428:	f002 0303 	and.w	r3, r2, #3
 800242c:	2b03      	cmp	r3, #3
 800242e:	d107      	bne.n	8002440 <HAL_RCC_OscConfig+0x16c>
 8002430:	f7ff fe50 	bl	80020d4 <LL_RCC_HSE_IsReady>
 8002434:	2800      	cmp	r0, #0
 8002436:	d08a      	beq.n	800234e <HAL_RCC_OscConfig+0x7a>
 8002438:	6863      	ldr	r3, [r4, #4]
 800243a:	2b00      	cmp	r3, #0
 800243c:	d187      	bne.n	800234e <HAL_RCC_OscConfig+0x7a>
 800243e:	e74c      	b.n	80022da <HAL_RCC_OscConfig+0x6>
 8002440:	6861      	ldr	r1, [r4, #4]
 8002442:	f04f 43b0 	mov.w	r3, #1476395008	; 0x58000000
 8002446:	f5b1 3f80 	cmp.w	r1, #65536	; 0x10000
 800244a:	681a      	ldr	r2, [r3, #0]
 800244c:	d110      	bne.n	8002470 <HAL_RCC_OscConfig+0x19c>
 800244e:	f442 3280 	orr.w	r2, r2, #65536	; 0x10000
 8002452:	601a      	str	r2, [r3, #0]
 8002454:	f7ff f9e4 	bl	8001820 <HAL_GetTick>
 8002458:	4605      	mov	r5, r0
 800245a:	f7ff fe3b 	bl	80020d4 <LL_RCC_HSE_IsReady>
 800245e:	2800      	cmp	r0, #0
 8002460:	f47f af75 	bne.w	800234e <HAL_RCC_OscConfig+0x7a>
 8002464:	f7ff f9dc 	bl	8001820 <HAL_GetTick>
 8002468:	1b40      	subs	r0, r0, r5
 800246a:	2864      	cmp	r0, #100	; 0x64
 800246c:	d9f5      	bls.n	800245a <HAL_RCC_OscConfig+0x186>
 800246e:	e7be      	b.n	80023ee <HAL_RCC_OscConfig+0x11a>
 8002470:	f422 3280 	bic.w	r2, r2, #65536	; 0x10000
 8002474:	601a      	str	r2, [r3, #0]
 8002476:	2900      	cmp	r1, #0
 8002478:	d1ec      	bne.n	8002454 <HAL_RCC_OscConfig+0x180>
 800247a:	f7ff f9d1 	bl	8001820 <HAL_GetTick>
 800247e:	4605      	mov	r5, r0
 8002480:	f7ff fe28 	bl	80020d4 <LL_RCC_HSE_IsReady>
 8002484:	2800      	cmp	r0, #0
 8002486:	f43f af62 	beq.w	800234e <HAL_RCC_OscConfig+0x7a>
 800248a:	f7ff f9c9 	bl	8001820 <HAL_GetTick>
 800248e:	1b40      	subs	r0, r0, r5
 8002490:	2864      	cmp	r0, #100	; 0x64
 8002492:	d9f5      	bls.n	8002480 <HAL_RCC_OscConfig+0x1ac>
 8002494:	e7ab      	b.n	80023ee <HAL_RCC_OscConfig+0x11a>
 8002496:	f04f 42b0 	mov.w	r2, #1476395008	; 0x58000000
 800249a:	6893      	ldr	r3, [r2, #8]
 800249c:	68d2      	ldr	r2, [r2, #12]
 800249e:	f003 030c 	and.w	r3, r3, #12
 80024a2:	2b04      	cmp	r3, #4
 80024a4:	d005      	beq.n	80024b2 <HAL_RCC_OscConfig+0x1de>
 80024a6:	2b0c      	cmp	r3, #12
 80024a8:	d114      	bne.n	80024d4 <HAL_RCC_OscConfig+0x200>
 80024aa:	f002 0303 	and.w	r3, r2, #3
 80024ae:	2b02      	cmp	r3, #2
 80024b0:	d110      	bne.n	80024d4 <HAL_RCC_OscConfig+0x200>
 80024b2:	f7ff fe15 	bl	80020e0 <LL_RCC_HSI_IsReady>
 80024b6:	b118      	cbz	r0, 80024c0 <HAL_RCC_OscConfig+0x1ec>
 80024b8:	68e3      	ldr	r3, [r4, #12]
 80024ba:	2b00      	cmp	r3, #0
 80024bc:	f43f af0d 	beq.w	80022da <HAL_RCC_OscConfig+0x6>
 80024c0:	f04f 42b0 	mov.w	r2, #1476395008	; 0x58000000
 80024c4:	6921      	ldr	r1, [r4, #16]
 80024c6:	6853      	ldr	r3, [r2, #4]
 80024c8:	f023 43fe 	bic.w	r3, r3, #2130706432	; 0x7f000000
 80024cc:	ea43 6301 	orr.w	r3, r3, r1, lsl #24
 80024d0:	6053      	str	r3, [r2, #4]
 80024d2:	e740      	b.n	8002356 <HAL_RCC_OscConfig+0x82>
 80024d4:	68e2      	ldr	r2, [r4, #12]
 80024d6:	f04f 43b0 	mov.w	r3, #1476395008	; 0x58000000
 80024da:	b182      	cbz	r2, 80024fe <HAL_RCC_OscConfig+0x22a>
 80024dc:	681a      	ldr	r2, [r3, #0]
 80024de:	f442 7280 	orr.w	r2, r2, #256	; 0x100
 80024e2:	601a      	str	r2, [r3, #0]
 80024e4:	f7ff f99c 	bl	8001820 <HAL_GetTick>
 80024e8:	4605      	mov	r5, r0
 80024ea:	f7ff fdf9 	bl	80020e0 <LL_RCC_HSI_IsReady>
 80024ee:	2800      	cmp	r0, #0
 80024f0:	d1e6      	bne.n	80024c0 <HAL_RCC_OscConfig+0x1ec>
 80024f2:	f7ff f995 	bl	8001820 <HAL_GetTick>
 80024f6:	1b40      	subs	r0, r0, r5
 80024f8:	2802      	cmp	r0, #2
 80024fa:	d9f6      	bls.n	80024ea <HAL_RCC_OscConfig+0x216>
 80024fc:	e777      	b.n	80023ee <HAL_RCC_OscConfig+0x11a>
 80024fe:	681a      	ldr	r2, [r3, #0]
 8002500:	f422 7280 	bic.w	r2, r2, #256	; 0x100
 8002504:	601a      	str	r2, [r3, #0]
 8002506:	f7ff f98b 	bl	8001820 <HAL_GetTick>
 800250a:	4605      	mov	r5, r0
 800250c:	f7ff fde8 	bl	80020e0 <LL_RCC_HSI_IsReady>
 8002510:	2800      	cmp	r0, #0
 8002512:	f43f af20 	beq.w	8002356 <HAL_RCC_OscConfig+0x82>
 8002516:	f7ff f983 	bl	8001820 <HAL_GetTick>
 800251a:	1b40      	subs	r0, r0, r5
 800251c:	2802      	cmp	r0, #2
 800251e:	d9f5      	bls.n	800250c <HAL_RCC_OscConfig+0x238>
 8002520:	e765      	b.n	80023ee <HAL_RCC_OscConfig+0x11a>
 8002522:	6962      	ldr	r2, [r4, #20]
 8002524:	f04f 45b0 	mov.w	r5, #1476395008	; 0x58000000
 8002528:	2a00      	cmp	r2, #0
 800252a:	d073      	beq.n	8002614 <HAL_RCC_OscConfig+0x340>
 800252c:	06d9      	lsls	r1, r3, #27
 800252e:	d547      	bpl.n	80025c0 <HAL_RCC_OscConfig+0x2ec>
 8002530:	f7ff fddc 	bl	80020ec <LL_RCC_LSI1_IsReady>
 8002534:	b358      	cbz	r0, 800258e <HAL_RCC_OscConfig+0x2ba>
 8002536:	f04f 45b0 	mov.w	r5, #1476395008	; 0x58000000
 800253a:	f8d5 3094 	ldr.w	r3, [r5, #148]	; 0x94
 800253e:	f043 0304 	orr.w	r3, r3, #4
 8002542:	f8c5 3094 	str.w	r3, [r5, #148]	; 0x94
 8002546:	f7ff f96b 	bl	8001820 <HAL_GetTick>
 800254a:	4606      	mov	r6, r0
 800254c:	f8d5 3094 	ldr.w	r3, [r5, #148]	; 0x94
 8002550:	071a      	lsls	r2, r3, #28
 8002552:	d52f      	bpl.n	80025b4 <HAL_RCC_OscConfig+0x2e0>
 8002554:	f8d5 3094 	ldr.w	r3, [r5, #148]	; 0x94
 8002558:	69a2      	ldr	r2, [r4, #24]
 800255a:	f423 6370 	bic.w	r3, r3, #3840	; 0xf00
 800255e:	ea43 2302 	orr.w	r3, r3, r2, lsl #8
 8002562:	f8c5 3094 	str.w	r3, [r5, #148]	; 0x94
 8002566:	f8d5 3094 	ldr.w	r3, [r5, #148]	; 0x94
 800256a:	f023 0301 	bic.w	r3, r3, #1
 800256e:	f8c5 3094 	str.w	r3, [r5, #148]	; 0x94
 8002572:	f7ff f955 	bl	8001820 <HAL_GetTick>
 8002576:	4605      	mov	r5, r0
 8002578:	f7ff fdb8 	bl	80020ec <LL_RCC_LSI1_IsReady>
 800257c:	2800      	cmp	r0, #0
 800257e:	f43f aeef 	beq.w	8002360 <HAL_RCC_OscConfig+0x8c>
 8002582:	f7ff f94d 	bl	8001820 <HAL_GetTick>
 8002586:	1b40      	subs	r0, r0, r5
 8002588:	2802      	cmp	r0, #2
 800258a:	d9f5      	bls.n	8002578 <HAL_RCC_OscConfig+0x2a4>
 800258c:	e72f      	b.n	80023ee <HAL_RCC_OscConfig+0x11a>
 800258e:	f8d5 3094 	ldr.w	r3, [r5, #148]	; 0x94
 8002592:	f043 0301 	orr.w	r3, r3, #1
 8002596:	f8c5 3094 	str.w	r3, [r5, #148]	; 0x94
 800259a:	f7ff f941 	bl	8001820 <HAL_GetTick>
 800259e:	4605      	mov	r5, r0
 80025a0:	f7ff fda4 	bl	80020ec <LL_RCC_LSI1_IsReady>
 80025a4:	2800      	cmp	r0, #0
 80025a6:	d1c6      	bne.n	8002536 <HAL_RCC_OscConfig+0x262>
 80025a8:	f7ff f93a 	bl	8001820 <HAL_GetTick>
 80025ac:	1b40      	subs	r0, r0, r5
 80025ae:	2802      	cmp	r0, #2
 80025b0:	d9f6      	bls.n	80025a0 <HAL_RCC_OscConfig+0x2cc>
 80025b2:	e71c      	b.n	80023ee <HAL_RCC_OscConfig+0x11a>
 80025b4:	f7ff f934 	bl	8001820 <HAL_GetTick>
 80025b8:	1b83      	subs	r3, r0, r6
 80025ba:	2b03      	cmp	r3, #3
 80025bc:	d9c6      	bls.n	800254c <HAL_RCC_OscConfig+0x278>
 80025be:	e716      	b.n	80023ee <HAL_RCC_OscConfig+0x11a>
 80025c0:	f8d5 3094 	ldr.w	r3, [r5, #148]	; 0x94
 80025c4:	f043 0301 	orr.w	r3, r3, #1
 80025c8:	f8c5 3094 	str.w	r3, [r5, #148]	; 0x94
 80025cc:	f7ff f928 	bl	8001820 <HAL_GetTick>
 80025d0:	4605      	mov	r5, r0
 80025d2:	f7ff fd8b 	bl	80020ec <LL_RCC_LSI1_IsReady>
 80025d6:	b1b8      	cbz	r0, 8002608 <HAL_RCC_OscConfig+0x334>
 80025d8:	f04f 46b0 	mov.w	r6, #1476395008	; 0x58000000
 80025dc:	f8d6 3094 	ldr.w	r3, [r6, #148]	; 0x94
 80025e0:	f023 0304 	bic.w	r3, r3, #4
 80025e4:	f8c6 3094 	str.w	r3, [r6, #148]	; 0x94
 80025e8:	f8d6 3094 	ldr.w	r3, [r6, #148]	; 0x94
 80025ec:	071b      	lsls	r3, r3, #28
 80025ee:	f57f aeb7 	bpl.w	8002360 <HAL_RCC_OscConfig+0x8c>
 80025f2:	f7ff f915 	bl	8001820 <HAL_GetTick>
 80025f6:	1b40      	subs	r0, r0, r5
 80025f8:	2803      	cmp	r0, #3
 80025fa:	d9f5      	bls.n	80025e8 <HAL_RCC_OscConfig+0x314>
 80025fc:	e6f7      	b.n	80023ee <HAL_RCC_OscConfig+0x11a>
 80025fe:	bf00      	nop
 8002600:	20000024 	.word	0x20000024
 8002604:	2000002c 	.word	0x2000002c
 8002608:	f7ff f90a 	bl	8001820 <HAL_GetTick>
 800260c:	1b40      	subs	r0, r0, r5
 800260e:	2802      	cmp	r0, #2
 8002610:	d9df      	bls.n	80025d2 <HAL_RCC_OscConfig+0x2fe>
 8002612:	e6ec      	b.n	80023ee <HAL_RCC_OscConfig+0x11a>
 8002614:	f8d5 3094 	ldr.w	r3, [r5, #148]	; 0x94
 8002618:	f023 0304 	bic.w	r3, r3, #4
 800261c:	f8c5 3094 	str.w	r3, [r5, #148]	; 0x94
 8002620:	f7ff f8fe 	bl	8001820 <HAL_GetTick>
 8002624:	4606      	mov	r6, r0
 8002626:	f8d5 3094 	ldr.w	r3, [r5, #148]	; 0x94
 800262a:	071f      	lsls	r7, r3, #28
 800262c:	d413      	bmi.n	8002656 <HAL_RCC_OscConfig+0x382>
 800262e:	f8d5 3094 	ldr.w	r3, [r5, #148]	; 0x94
 8002632:	f023 0301 	bic.w	r3, r3, #1
 8002636:	f8c5 3094 	str.w	r3, [r5, #148]	; 0x94
 800263a:	f7ff f8f1 	bl	8001820 <HAL_GetTick>
 800263e:	4605      	mov	r5, r0
 8002640:	f7ff fd54 	bl	80020ec <LL_RCC_LSI1_IsReady>
 8002644:	2800      	cmp	r0, #0
 8002646:	f43f ae8b 	beq.w	8002360 <HAL_RCC_OscConfig+0x8c>
 800264a:	f7ff f8e9 	bl	8001820 <HAL_GetTick>
 800264e:	1b40      	subs	r0, r0, r5
 8002650:	2802      	cmp	r0, #2
 8002652:	d9f5      	bls.n	8002640 <HAL_RCC_OscConfig+0x36c>
 8002654:	e6cb      	b.n	80023ee <HAL_RCC_OscConfig+0x11a>
 8002656:	f7ff f8e3 	bl	8001820 <HAL_GetTick>
 800265a:	1b83      	subs	r3, r0, r6
 800265c:	2b03      	cmp	r3, #3
 800265e:	d9e2      	bls.n	8002626 <HAL_RCC_OscConfig+0x352>
 8002660:	e6c5      	b.n	80023ee <HAL_RCC_OscConfig+0x11a>
 8002662:	4e84      	ldr	r6, [pc, #528]	; (8002874 <HAL_RCC_OscConfig+0x5a0>)
 8002664:	6833      	ldr	r3, [r6, #0]
 8002666:	05d8      	lsls	r0, r3, #23
 8002668:	d51c      	bpl.n	80026a4 <HAL_RCC_OscConfig+0x3d0>
 800266a:	68a3      	ldr	r3, [r4, #8]
 800266c:	2b01      	cmp	r3, #1
 800266e:	f04f 45b0 	mov.w	r5, #1476395008	; 0x58000000
 8002672:	d125      	bne.n	80026c0 <HAL_RCC_OscConfig+0x3ec>
 8002674:	f8d5 3090 	ldr.w	r3, [r5, #144]	; 0x90
 8002678:	f043 0301 	orr.w	r3, r3, #1
 800267c:	f8c5 3090 	str.w	r3, [r5, #144]	; 0x90
 8002680:	f7ff f8ce 	bl	8001820 <HAL_GetTick>
 8002684:	f04f 47b0 	mov.w	r7, #1476395008	; 0x58000000
 8002688:	4605      	mov	r5, r0
 800268a:	f241 3688 	movw	r6, #5000	; 0x1388
 800268e:	f8d7 3090 	ldr.w	r3, [r7, #144]	; 0x90
 8002692:	079a      	lsls	r2, r3, #30
 8002694:	f53f ae68 	bmi.w	8002368 <HAL_RCC_OscConfig+0x94>
 8002698:	f7ff f8c2 	bl	8001820 <HAL_GetTick>
 800269c:	1b43      	subs	r3, r0, r5
 800269e:	42b3      	cmp	r3, r6
 80026a0:	d9f5      	bls.n	800268e <HAL_RCC_OscConfig+0x3ba>
 80026a2:	e6a4      	b.n	80023ee <HAL_RCC_OscConfig+0x11a>
 80026a4:	f7ff fd06 	bl	80020b4 <HAL_PWR_EnableBkUpAccess>
 80026a8:	f7ff f8ba 	bl	8001820 <HAL_GetTick>
 80026ac:	4605      	mov	r5, r0
 80026ae:	6833      	ldr	r3, [r6, #0]
 80026b0:	05d9      	lsls	r1, r3, #23
 80026b2:	d4da      	bmi.n	800266a <HAL_RCC_OscConfig+0x396>
 80026b4:	f7ff f8b4 	bl	8001820 <HAL_GetTick>
 80026b8:	1b40      	subs	r0, r0, r5
 80026ba:	2802      	cmp	r0, #2
 80026bc:	d9f7      	bls.n	80026ae <HAL_RCC_OscConfig+0x3da>
 80026be:	e696      	b.n	80023ee <HAL_RCC_OscConfig+0x11a>
 80026c0:	2b05      	cmp	r3, #5
 80026c2:	d106      	bne.n	80026d2 <HAL_RCC_OscConfig+0x3fe>
 80026c4:	f8d5 3090 	ldr.w	r3, [r5, #144]	; 0x90
 80026c8:	f043 0304 	orr.w	r3, r3, #4
 80026cc:	f8c5 3090 	str.w	r3, [r5, #144]	; 0x90
 80026d0:	e7d0      	b.n	8002674 <HAL_RCC_OscConfig+0x3a0>
 80026d2:	f8d5 2090 	ldr.w	r2, [r5, #144]	; 0x90
 80026d6:	f022 0201 	bic.w	r2, r2, #1
 80026da:	f8c5 2090 	str.w	r2, [r5, #144]	; 0x90
 80026de:	f8d5 2090 	ldr.w	r2, [r5, #144]	; 0x90
 80026e2:	f022 0204 	bic.w	r2, r2, #4
 80026e6:	f8c5 2090 	str.w	r2, [r5, #144]	; 0x90
 80026ea:	2b00      	cmp	r3, #0
 80026ec:	d1c8      	bne.n	8002680 <HAL_RCC_OscConfig+0x3ac>
 80026ee:	f7ff f897 	bl	8001820 <HAL_GetTick>
 80026f2:	f241 3788 	movw	r7, #5000	; 0x1388
 80026f6:	4606      	mov	r6, r0
 80026f8:	f8d5 3090 	ldr.w	r3, [r5, #144]	; 0x90
 80026fc:	079b      	lsls	r3, r3, #30
 80026fe:	f57f ae33 	bpl.w	8002368 <HAL_RCC_OscConfig+0x94>
 8002702:	f7ff f88d 	bl	8001820 <HAL_GetTick>
 8002706:	1b83      	subs	r3, r0, r6
 8002708:	42bb      	cmp	r3, r7
 800270a:	d9f5      	bls.n	80026f8 <HAL_RCC_OscConfig+0x424>
 800270c:	e66f      	b.n	80023ee <HAL_RCC_OscConfig+0x11a>
 800270e:	f8d5 3098 	ldr.w	r3, [r5, #152]	; 0x98
 8002712:	f023 0301 	bic.w	r3, r3, #1
 8002716:	f8c5 3098 	str.w	r3, [r5, #152]	; 0x98
 800271a:	f7ff f881 	bl	8001820 <HAL_GetTick>
 800271e:	4606      	mov	r6, r0
 8002720:	f8d5 3098 	ldr.w	r3, [r5, #152]	; 0x98
 8002724:	079a      	lsls	r2, r3, #30
 8002726:	d505      	bpl.n	8002734 <HAL_RCC_OscConfig+0x460>
 8002728:	f7ff f87a 	bl	8001820 <HAL_GetTick>
 800272c:	1b83      	subs	r3, r0, r6
 800272e:	2b02      	cmp	r3, #2
 8002730:	d9f6      	bls.n	8002720 <HAL_RCC_OscConfig+0x44c>
 8002732:	e65c      	b.n	80023ee <HAL_RCC_OscConfig+0x11a>
 8002734:	6ae1      	ldr	r1, [r4, #44]	; 0x2c
 8002736:	b909      	cbnz	r1, 800273c <HAL_RCC_OscConfig+0x468>
 8002738:	2000      	movs	r0, #0
 800273a:	e659      	b.n	80023f0 <HAL_RCC_OscConfig+0x11c>
 800273c:	f04f 45b0 	mov.w	r5, #1476395008	; 0x58000000
 8002740:	2902      	cmp	r1, #2
 8002742:	68aa      	ldr	r2, [r5, #8]
 8002744:	68eb      	ldr	r3, [r5, #12]
 8002746:	f002 020c 	and.w	r2, r2, #12
 800274a:	d174      	bne.n	8002836 <HAL_RCC_OscConfig+0x562>
 800274c:	6b20      	ldr	r0, [r4, #48]	; 0x30
 800274e:	f003 0103 	and.w	r1, r3, #3
 8002752:	4281      	cmp	r1, r0
 8002754:	d118      	bne.n	8002788 <HAL_RCC_OscConfig+0x4b4>
 8002756:	6b60      	ldr	r0, [r4, #52]	; 0x34
 8002758:	f003 0170 	and.w	r1, r3, #112	; 0x70
 800275c:	4281      	cmp	r1, r0
 800275e:	d113      	bne.n	8002788 <HAL_RCC_OscConfig+0x4b4>
 8002760:	6ba0      	ldr	r0, [r4, #56]	; 0x38
 8002762:	f3c3 2106 	ubfx	r1, r3, #8, #7
 8002766:	4281      	cmp	r1, r0
 8002768:	d10e      	bne.n	8002788 <HAL_RCC_OscConfig+0x4b4>
 800276a:	6be0      	ldr	r0, [r4, #60]	; 0x3c
 800276c:	f403 1178 	and.w	r1, r3, #4063232	; 0x3e0000
 8002770:	4281      	cmp	r1, r0
 8002772:	d109      	bne.n	8002788 <HAL_RCC_OscConfig+0x4b4>
 8002774:	6c20      	ldr	r0, [r4, #64]	; 0x40
 8002776:	f003 6160 	and.w	r1, r3, #234881024	; 0xe000000
 800277a:	4281      	cmp	r1, r0
 800277c:	d104      	bne.n	8002788 <HAL_RCC_OscConfig+0x4b4>
 800277e:	6c61      	ldr	r1, [r4, #68]	; 0x44
 8002780:	f003 4360 	and.w	r3, r3, #3758096384	; 0xe0000000
 8002784:	428b      	cmp	r3, r1
 8002786:	d03f      	beq.n	8002808 <HAL_RCC_OscConfig+0x534>
 8002788:	2a0c      	cmp	r2, #12
 800278a:	f43f ada6 	beq.w	80022da <HAL_RCC_OscConfig+0x6>
 800278e:	f04f 45b0 	mov.w	r5, #1476395008	; 0x58000000
 8002792:	682b      	ldr	r3, [r5, #0]
 8002794:	015b      	lsls	r3, r3, #5
 8002796:	f53f ada0 	bmi.w	80022da <HAL_RCC_OscConfig+0x6>
 800279a:	682b      	ldr	r3, [r5, #0]
 800279c:	f023 7380 	bic.w	r3, r3, #16777216	; 0x1000000
 80027a0:	602b      	str	r3, [r5, #0]
 80027a2:	f7ff f83d 	bl	8001820 <HAL_GetTick>
 80027a6:	4606      	mov	r6, r0
 80027a8:	682b      	ldr	r3, [r5, #0]
 80027aa:	019f      	lsls	r7, r3, #6
 80027ac:	d426      	bmi.n	80027fc <HAL_RCC_OscConfig+0x528>
 80027ae:	e9d4 320c 	ldrd	r3, r2, [r4, #48]	; 0x30
 80027b2:	68e9      	ldr	r1, [r5, #12]
 80027b4:	4313      	orrs	r3, r2
 80027b6:	4a30      	ldr	r2, [pc, #192]	; (8002878 <HAL_RCC_OscConfig+0x5a4>)
 80027b8:	400a      	ands	r2, r1
 80027ba:	4313      	orrs	r3, r2
 80027bc:	6be2      	ldr	r2, [r4, #60]	; 0x3c
 80027be:	4313      	orrs	r3, r2
 80027c0:	6c22      	ldr	r2, [r4, #64]	; 0x40
 80027c2:	4313      	orrs	r3, r2
 80027c4:	6c62      	ldr	r2, [r4, #68]	; 0x44
 80027c6:	4313      	orrs	r3, r2
 80027c8:	6ba2      	ldr	r2, [r4, #56]	; 0x38
 80027ca:	ea43 2302 	orr.w	r3, r3, r2, lsl #8
 80027ce:	60eb      	str	r3, [r5, #12]
 80027d0:	682b      	ldr	r3, [r5, #0]
 80027d2:	f043 7380 	orr.w	r3, r3, #16777216	; 0x1000000
 80027d6:	602b      	str	r3, [r5, #0]
 80027d8:	68eb      	ldr	r3, [r5, #12]
 80027da:	f043 5380 	orr.w	r3, r3, #268435456	; 0x10000000
 80027de:	60eb      	str	r3, [r5, #12]
 80027e0:	f7ff f81e 	bl	8001820 <HAL_GetTick>
 80027e4:	f04f 45b0 	mov.w	r5, #1476395008	; 0x58000000
 80027e8:	4604      	mov	r4, r0
 80027ea:	682b      	ldr	r3, [r5, #0]
 80027ec:	0198      	lsls	r0, r3, #6
 80027ee:	d4a3      	bmi.n	8002738 <HAL_RCC_OscConfig+0x464>
 80027f0:	f7ff f816 	bl	8001820 <HAL_GetTick>
 80027f4:	1b00      	subs	r0, r0, r4
 80027f6:	2802      	cmp	r0, #2
 80027f8:	d9f7      	bls.n	80027ea <HAL_RCC_OscConfig+0x516>
 80027fa:	e5f8      	b.n	80023ee <HAL_RCC_OscConfig+0x11a>
 80027fc:	f7ff f810 	bl	8001820 <HAL_GetTick>
 8002800:	1b80      	subs	r0, r0, r6
 8002802:	2802      	cmp	r0, #2
 8002804:	d9d0      	bls.n	80027a8 <HAL_RCC_OscConfig+0x4d4>
 8002806:	e5f2      	b.n	80023ee <HAL_RCC_OscConfig+0x11a>
 8002808:	682b      	ldr	r3, [r5, #0]
 800280a:	0199      	lsls	r1, r3, #6
 800280c:	d494      	bmi.n	8002738 <HAL_RCC_OscConfig+0x464>
 800280e:	682b      	ldr	r3, [r5, #0]
 8002810:	f043 7380 	orr.w	r3, r3, #16777216	; 0x1000000
 8002814:	602b      	str	r3, [r5, #0]
 8002816:	68eb      	ldr	r3, [r5, #12]
 8002818:	f043 5380 	orr.w	r3, r3, #268435456	; 0x10000000
 800281c:	60eb      	str	r3, [r5, #12]
 800281e:	f7fe ffff 	bl	8001820 <HAL_GetTick>
 8002822:	4604      	mov	r4, r0
 8002824:	682b      	ldr	r3, [r5, #0]
 8002826:	019a      	lsls	r2, r3, #6
 8002828:	d486      	bmi.n	8002738 <HAL_RCC_OscConfig+0x464>
 800282a:	f7fe fff9 	bl	8001820 <HAL_GetTick>
 800282e:	1b00      	subs	r0, r0, r4
 8002830:	2802      	cmp	r0, #2
 8002832:	d9f7      	bls.n	8002824 <HAL_RCC_OscConfig+0x550>
 8002834:	e5db      	b.n	80023ee <HAL_RCC_OscConfig+0x11a>
 8002836:	2a0c      	cmp	r2, #12
 8002838:	f43f ad4f 	beq.w	80022da <HAL_RCC_OscConfig+0x6>
 800283c:	682b      	ldr	r3, [r5, #0]
 800283e:	f023 7380 	bic.w	r3, r3, #16777216	; 0x1000000
 8002842:	602b      	str	r3, [r5, #0]
 8002844:	68eb      	ldr	r3, [r5, #12]
 8002846:	f023 0303 	bic.w	r3, r3, #3
 800284a:	60eb      	str	r3, [r5, #12]
 800284c:	68eb      	ldr	r3, [r5, #12]
 800284e:	f023 5388 	bic.w	r3, r3, #285212672	; 0x11000000
 8002852:	f423 3380 	bic.w	r3, r3, #65536	; 0x10000
 8002856:	60eb      	str	r3, [r5, #12]
 8002858:	f7fe ffe2 	bl	8001820 <HAL_GetTick>
 800285c:	4604      	mov	r4, r0
 800285e:	682b      	ldr	r3, [r5, #0]
 8002860:	019b      	lsls	r3, r3, #6
 8002862:	f57f af69 	bpl.w	8002738 <HAL_RCC_OscConfig+0x464>
 8002866:	f7fe ffdb 	bl	8001820 <HAL_GetTick>
 800286a:	1b00      	subs	r0, r0, r4
 800286c:	2802      	cmp	r0, #2
 800286e:	d9f6      	bls.n	800285e <HAL_RCC_OscConfig+0x58a>
 8002870:	e5bd      	b.n	80023ee <HAL_RCC_OscConfig+0x11a>
 8002872:	bf00      	nop
 8002874:	58000400 	.word	0x58000400
 8002878:	11c1808c 	.word	0x11c1808c

0800287c <HAL_RCC_ClockConfig>:
 800287c:	e92d 41f0 	stmdb	sp!, {r4, r5, r6, r7, r8, lr}
 8002880:	460d      	mov	r5, r1
 8002882:	4604      	mov	r4, r0
 8002884:	b910      	cbnz	r0, 800288c <HAL_RCC_ClockConfig+0x10>
 8002886:	2001      	movs	r0, #1
 8002888:	e8bd 81f0 	ldmia.w	sp!, {r4, r5, r6, r7, r8, pc}
 800288c:	4e75      	ldr	r6, [pc, #468]	; (8002a64 <HAL_RCC_ClockConfig+0x1e8>)
 800288e:	6833      	ldr	r3, [r6, #0]
 8002890:	f003 0307 	and.w	r3, r3, #7
 8002894:	428b      	cmp	r3, r1
 8002896:	d316      	bcc.n	80028c6 <HAL_RCC_ClockConfig+0x4a>
 8002898:	6823      	ldr	r3, [r4, #0]
 800289a:	0798      	lsls	r0, r3, #30
 800289c:	d527      	bpl.n	80028ee <HAL_RCC_ClockConfig+0x72>
 800289e:	f04f 47b0 	mov.w	r7, #1476395008	; 0x58000000
 80028a2:	68a2      	ldr	r2, [r4, #8]
 80028a4:	68bb      	ldr	r3, [r7, #8]
 80028a6:	f023 03f0 	bic.w	r3, r3, #240	; 0xf0
 80028aa:	4313      	orrs	r3, r2
 80028ac:	60bb      	str	r3, [r7, #8]
 80028ae:	f7fe ffb7 	bl	8001820 <HAL_GetTick>
 80028b2:	4606      	mov	r6, r0
 80028b4:	68bb      	ldr	r3, [r7, #8]
 80028b6:	03d9      	lsls	r1, r3, #15
 80028b8:	d419      	bmi.n	80028ee <HAL_RCC_ClockConfig+0x72>
 80028ba:	f7fe ffb1 	bl	8001820 <HAL_GetTick>
 80028be:	1b83      	subs	r3, r0, r6
 80028c0:	2b02      	cmp	r3, #2
 80028c2:	d9f7      	bls.n	80028b4 <HAL_RCC_ClockConfig+0x38>
 80028c4:	e011      	b.n	80028ea <HAL_RCC_ClockConfig+0x6e>
 80028c6:	6833      	ldr	r3, [r6, #0]
 80028c8:	f023 0307 	bic.w	r3, r3, #7
 80028cc:	430b      	orrs	r3, r1
 80028ce:	6033      	str	r3, [r6, #0]
 80028d0:	f7fe ffa6 	bl	8001820 <HAL_GetTick>
 80028d4:	4607      	mov	r7, r0
 80028d6:	6833      	ldr	r3, [r6, #0]
 80028d8:	f003 0307 	and.w	r3, r3, #7
 80028dc:	42ab      	cmp	r3, r5
 80028de:	d0db      	beq.n	8002898 <HAL_RCC_ClockConfig+0x1c>
 80028e0:	f7fe ff9e 	bl	8001820 <HAL_GetTick>
 80028e4:	1bc0      	subs	r0, r0, r7
 80028e6:	2802      	cmp	r0, #2
 80028e8:	d9f5      	bls.n	80028d6 <HAL_RCC_ClockConfig+0x5a>
 80028ea:	2003      	movs	r0, #3
 80028ec:	e7cc      	b.n	8002888 <HAL_RCC_ClockConfig+0xc>
 80028ee:	6823      	ldr	r3, [r4, #0]
 80028f0:	069a      	lsls	r2, r3, #26
 80028f2:	d516      	bpl.n	8002922 <HAL_RCC_ClockConfig+0xa6>
 80028f4:	f04f 47b0 	mov.w	r7, #1476395008	; 0x58000000
 80028f8:	6962      	ldr	r2, [r4, #20]
 80028fa:	f8d7 3108 	ldr.w	r3, [r7, #264]	; 0x108
 80028fe:	f023 03f0 	bic.w	r3, r3, #240	; 0xf0
 8002902:	4313      	orrs	r3, r2
 8002904:	f8c7 3108 	str.w	r3, [r7, #264]	; 0x108
 8002908:	f7fe ff8a 	bl	8001820 <HAL_GetTick>
 800290c:	4606      	mov	r6, r0
 800290e:	f8d7 3108 	ldr.w	r3, [r7, #264]	; 0x108
 8002912:	039b      	lsls	r3, r3, #14
 8002914:	d405      	bmi.n	8002922 <HAL_RCC_ClockConfig+0xa6>
 8002916:	f7fe ff83 	bl	8001820 <HAL_GetTick>
 800291a:	1b83      	subs	r3, r0, r6
 800291c:	2b02      	cmp	r3, #2
 800291e:	d9f6      	bls.n	800290e <HAL_RCC_ClockConfig+0x92>
 8002920:	e7e3      	b.n	80028ea <HAL_RCC_ClockConfig+0x6e>
 8002922:	6823      	ldr	r3, [r4, #0]
 8002924:	0658      	lsls	r0, r3, #25
 8002926:	d517      	bpl.n	8002958 <HAL_RCC_ClockConfig+0xdc>
 8002928:	f04f 47b0 	mov.w	r7, #1476395008	; 0x58000000
 800292c:	69a2      	ldr	r2, [r4, #24]
 800292e:	f8d7 3108 	ldr.w	r3, [r7, #264]	; 0x108
 8002932:	f023 030f 	bic.w	r3, r3, #15
 8002936:	ea43 1312 	orr.w	r3, r3, r2, lsr #4
 800293a:	f8c7 3108 	str.w	r3, [r7, #264]	; 0x108
 800293e:	f7fe ff6f 	bl	8001820 <HAL_GetTick>
 8002942:	4606      	mov	r6, r0
 8002944:	f8d7 3108 	ldr.w	r3, [r7, #264]	; 0x108
 8002948:	03d9      	lsls	r1, r3, #15
 800294a:	d405      	bmi.n	8002958 <HAL_RCC_ClockConfig+0xdc>
 800294c:	f7fe ff68 	bl	8001820 <HAL_GetTick>
 8002950:	1b83      	subs	r3, r0, r6
 8002952:	2b02      	cmp	r3, #2
 8002954:	d9f6      	bls.n	8002944 <HAL_RCC_ClockConfig+0xc8>
 8002956:	e7c8      	b.n	80028ea <HAL_RCC_ClockConfig+0x6e>
 8002958:	6823      	ldr	r3, [r4, #0]
 800295a:	075a      	lsls	r2, r3, #29
 800295c:	d513      	bpl.n	8002986 <HAL_RCC_ClockConfig+0x10a>
 800295e:	f04f 47b0 	mov.w	r7, #1476395008	; 0x58000000
 8002962:	68e2      	ldr	r2, [r4, #12]
 8002964:	68bb      	ldr	r3, [r7, #8]
 8002966:	f423 63e0 	bic.w	r3, r3, #1792	; 0x700
 800296a:	4313      	orrs	r3, r2
 800296c:	60bb      	str	r3, [r7, #8]
 800296e:	f7fe ff57 	bl	8001820 <HAL_GetTick>
 8002972:	4606      	mov	r6, r0
 8002974:	68bb      	ldr	r3, [r7, #8]
 8002976:	039b      	lsls	r3, r3, #14
 8002978:	d405      	bmi.n	8002986 <HAL_RCC_ClockConfig+0x10a>
 800297a:	f7fe ff51 	bl	8001820 <HAL_GetTick>
 800297e:	1b83      	subs	r3, r0, r6
 8002980:	2b02      	cmp	r3, #2
 8002982:	d9f7      	bls.n	8002974 <HAL_RCC_ClockConfig+0xf8>
 8002984:	e7b1      	b.n	80028ea <HAL_RCC_ClockConfig+0x6e>
 8002986:	6823      	ldr	r3, [r4, #0]
 8002988:	0718      	lsls	r0, r3, #28
 800298a:	d514      	bpl.n	80029b6 <HAL_RCC_ClockConfig+0x13a>
 800298c:	f04f 47b0 	mov.w	r7, #1476395008	; 0x58000000
 8002990:	6922      	ldr	r2, [r4, #16]
 8002992:	68bb      	ldr	r3, [r7, #8]
 8002994:	f423 5360 	bic.w	r3, r3, #14336	; 0x3800
 8002998:	ea43 03c2 	orr.w	r3, r3, r2, lsl #3
 800299c:	60bb      	str	r3, [r7, #8]
 800299e:	f7fe ff3f 	bl	8001820 <HAL_GetTick>
 80029a2:	4606      	mov	r6, r0
 80029a4:	68bb      	ldr	r3, [r7, #8]
 80029a6:	0359      	lsls	r1, r3, #13
 80029a8:	d405      	bmi.n	80029b6 <HAL_RCC_ClockConfig+0x13a>
 80029aa:	f7fe ff39 	bl	8001820 <HAL_GetTick>
 80029ae:	1b83      	subs	r3, r0, r6
 80029b0:	2b02      	cmp	r3, #2
 80029b2:	d9f7      	bls.n	80029a4 <HAL_RCC_ClockConfig+0x128>
 80029b4:	e799      	b.n	80028ea <HAL_RCC_ClockConfig+0x6e>
 80029b6:	6823      	ldr	r3, [r4, #0]
 80029b8:	07da      	lsls	r2, r3, #31
 80029ba:	d40f      	bmi.n	80029dc <HAL_RCC_ClockConfig+0x160>
 80029bc:	4c29      	ldr	r4, [pc, #164]	; (8002a64 <HAL_RCC_ClockConfig+0x1e8>)
 80029be:	6823      	ldr	r3, [r4, #0]
 80029c0:	f003 0307 	and.w	r3, r3, #7
 80029c4:	42ab      	cmp	r3, r5
 80029c6:	d839      	bhi.n	8002a3c <HAL_RCC_ClockConfig+0x1c0>
 80029c8:	f7ff fc74 	bl	80022b4 <HAL_RCC_GetHCLKFreq>
 80029cc:	4b26      	ldr	r3, [pc, #152]	; (8002a68 <HAL_RCC_ClockConfig+0x1ec>)
 80029ce:	6018      	str	r0, [r3, #0]
 80029d0:	f7fe ff2c 	bl	800182c <HAL_GetTickPrio>
 80029d4:	e8bd 41f0 	ldmia.w	sp!, {r4, r5, r6, r7, r8, lr}
 80029d8:	f7fe beda 	b.w	8001790 <HAL_InitTick>
 80029dc:	6863      	ldr	r3, [r4, #4]
 80029de:	2b02      	cmp	r3, #2
 80029e0:	d103      	bne.n	80029ea <HAL_RCC_ClockConfig+0x16e>
 80029e2:	f7ff fb77 	bl	80020d4 <LL_RCC_HSE_IsReady>
 80029e6:	b940      	cbnz	r0, 80029fa <HAL_RCC_ClockConfig+0x17e>
 80029e8:	e74d      	b.n	8002886 <HAL_RCC_ClockConfig+0xa>
 80029ea:	2b03      	cmp	r3, #3
 80029ec:	d11f      	bne.n	8002a2e <HAL_RCC_ClockConfig+0x1b2>
 80029ee:	f04f 43b0 	mov.w	r3, #1476395008	; 0x58000000
 80029f2:	681b      	ldr	r3, [r3, #0]
 80029f4:	019b      	lsls	r3, r3, #6
 80029f6:	f57f af46 	bpl.w	8002886 <HAL_RCC_ClockConfig+0xa>
 80029fa:	f04f 46b0 	mov.w	r6, #1476395008	; 0x58000000
 80029fe:	6862      	ldr	r2, [r4, #4]
 8002a00:	68b3      	ldr	r3, [r6, #8]
 8002a02:	f023 0303 	bic.w	r3, r3, #3
 8002a06:	4313      	orrs	r3, r2
 8002a08:	60b3      	str	r3, [r6, #8]
 8002a0a:	f7fe ff09 	bl	8001820 <HAL_GetTick>
 8002a0e:	f241 3888 	movw	r8, #5000	; 0x1388
 8002a12:	4607      	mov	r7, r0
 8002a14:	68b3      	ldr	r3, [r6, #8]
 8002a16:	6862      	ldr	r2, [r4, #4]
 8002a18:	f003 030c 	and.w	r3, r3, #12
 8002a1c:	ebb3 0f82 	cmp.w	r3, r2, lsl #2
 8002a20:	d0cc      	beq.n	80029bc <HAL_RCC_ClockConfig+0x140>
 8002a22:	f7fe fefd 	bl	8001820 <HAL_GetTick>
 8002a26:	1bc0      	subs	r0, r0, r7
 8002a28:	4540      	cmp	r0, r8
 8002a2a:	d9f3      	bls.n	8002a14 <HAL_RCC_ClockConfig+0x198>
 8002a2c:	e75d      	b.n	80028ea <HAL_RCC_ClockConfig+0x6e>
 8002a2e:	b913      	cbnz	r3, 8002a36 <HAL_RCC_ClockConfig+0x1ba>
 8002a30:	f7ff fb63 	bl	80020fa <LL_RCC_MSI_IsReady>
 8002a34:	e7d7      	b.n	80029e6 <HAL_RCC_ClockConfig+0x16a>
 8002a36:	f7ff fb53 	bl	80020e0 <LL_RCC_HSI_IsReady>
 8002a3a:	e7d4      	b.n	80029e6 <HAL_RCC_ClockConfig+0x16a>
 8002a3c:	6823      	ldr	r3, [r4, #0]
 8002a3e:	f023 0307 	bic.w	r3, r3, #7
 8002a42:	432b      	orrs	r3, r5
 8002a44:	6023      	str	r3, [r4, #0]
 8002a46:	f7fe feeb 	bl	8001820 <HAL_GetTick>
 8002a4a:	4606      	mov	r6, r0
 8002a4c:	6823      	ldr	r3, [r4, #0]
 8002a4e:	f003 0307 	and.w	r3, r3, #7
 8002a52:	42ab      	cmp	r3, r5
 8002a54:	d0b8      	beq.n	80029c8 <HAL_RCC_ClockConfig+0x14c>
 8002a56:	f7fe fee3 	bl	8001820 <HAL_GetTick>
 8002a5a:	1b80      	subs	r0, r0, r6
 8002a5c:	2802      	cmp	r0, #2
 8002a5e:	d9f5      	bls.n	8002a4c <HAL_RCC_ClockConfig+0x1d0>
 8002a60:	e743      	b.n	80028ea <HAL_RCC_ClockConfig+0x6e>
 8002a62:	bf00      	nop
 8002a64:	58004000 	.word	0x58004000
 8002a68:	20000024 	.word	0x20000024

08002a6c <HAL_RCC_GetPCLK1Freq>:
 8002a6c:	b508      	push	{r3, lr}
 8002a6e:	f7ff fc21 	bl	80022b4 <HAL_RCC_GetHCLKFreq>
 8002a72:	f04f 43b0 	mov.w	r3, #1476395008	; 0x58000000
 8002a76:	4a05      	ldr	r2, [pc, #20]	; (8002a8c <HAL_RCC_GetPCLK1Freq+0x20>)
 8002a78:	689b      	ldr	r3, [r3, #8]
 8002a7a:	f3c3 2302 	ubfx	r3, r3, #8, #3
 8002a7e:	f852 3023 	ldr.w	r3, [r2, r3, lsl #2]
 8002a82:	f003 031f 	and.w	r3, r3, #31
 8002a86:	40d8      	lsrs	r0, r3
 8002a88:	bd08      	pop	{r3, pc}
 8002a8a:	bf00      	nop
 8002a8c:	080089f0 	.word	0x080089f0

08002a90 <HAL_RCC_GetPCLK2Freq>:
 8002a90:	b508      	push	{r3, lr}
 8002a92:	f7ff fc0f 	bl	80022b4 <HAL_RCC_GetHCLKFreq>
 8002a96:	f04f 43b0 	mov.w	r3, #1476395008	; 0x58000000
 8002a9a:	4a05      	ldr	r2, [pc, #20]	; (8002ab0 <HAL_RCC_GetPCLK2Freq+0x20>)
 8002a9c:	689b      	ldr	r3, [r3, #8]
 8002a9e:	f3c3 23c2 	ubfx	r3, r3, #11, #3
 8002aa2:	f852 3023 	ldr.w	r3, [r2, r3, lsl #2]
 8002aa6:	f003 031f 	and.w	r3, r3, #31
 8002aaa:	40d8      	lsrs	r0, r3
 8002aac:	bd08      	pop	{r3, pc}
 8002aae:	bf00      	nop
 8002ab0:	080089f0 	.word	0x080089f0

08002ab4 <LL_RCC_LSE_IsReady>:
 8002ab4:	f04f 43b0 	mov.w	r3, #1476395008	; 0x58000000
 8002ab8:	f8d3 0090 	ldr.w	r0, [r3, #144]	; 0x90
 8002abc:	f3c0 0040 	ubfx	r0, r0, #1, #1
 8002ac0:	4770      	bx	lr

08002ac2 <LL_RCC_SetI2CClockSource>:
 8002ac2:	f04f 41b0 	mov.w	r1, #1476395008	; 0x58000000
 8002ac6:	0902      	lsrs	r2, r0, #4
 8002ac8:	f8d1 3088 	ldr.w	r3, [r1, #136]	; 0x88
 8002acc:	f402 227f 	and.w	r2, r2, #1044480	; 0xff000
 8002ad0:	0100      	lsls	r0, r0, #4
 8002ad2:	ea23 0302 	bic.w	r3, r3, r2
 8002ad6:	f400 207f 	and.w	r0, r0, #1044480	; 0xff000
 8002ada:	4318      	orrs	r0, r3
 8002adc:	f8c1 0088 	str.w	r0, [r1, #136]	; 0x88
 8002ae0:	4770      	bx	lr

08002ae2 <LL_RCC_PLLSAI1_Enable>:
 8002ae2:	f04f 42b0 	mov.w	r2, #1476395008	; 0x58000000
 8002ae6:	6813      	ldr	r3, [r2, #0]
 8002ae8:	f043 6380 	orr.w	r3, r3, #67108864	; 0x4000000
 8002aec:	6013      	str	r3, [r2, #0]
 8002aee:	4770      	bx	lr

08002af0 <LL_RCC_PLLSAI1_Disable>:
 8002af0:	f04f 42b0 	mov.w	r2, #1476395008	; 0x58000000
 8002af4:	6813      	ldr	r3, [r2, #0]
 8002af6:	f023 6380 	bic.w	r3, r3, #67108864	; 0x4000000
 8002afa:	6013      	str	r3, [r2, #0]
 8002afc:	4770      	bx	lr

08002afe <LL_RCC_PLLSAI1_IsReady>:
 8002afe:	f04f 43b0 	mov.w	r3, #1476395008	; 0x58000000
 8002b02:	6818      	ldr	r0, [r3, #0]
 8002b04:	f3c0 60c0 	ubfx	r0, r0, #27, #1
 8002b08:	4770      	bx	lr

08002b0a <HAL_RCCEx_PeriphCLKConfig>:
 8002b0a:	b5f8      	push	{r3, r4, r5, r6, r7, lr}
 8002b0c:	6805      	ldr	r5, [r0, #0]
 8002b0e:	f015 0540 	ands.w	r5, r5, #64	; 0x40
 8002b12:	4604      	mov	r4, r0
 8002b14:	d00a      	beq.n	8002b2c <HAL_RCCEx_PeriphCLKConfig+0x22>
 8002b16:	6b03      	ldr	r3, [r0, #48]	; 0x30
 8002b18:	f5b3 0f80 	cmp.w	r3, #4194304	; 0x400000
 8002b1c:	f000 80d9 	beq.w	8002cd2 <HAL_RCCEx_PeriphCLKConfig+0x1c8>
 8002b20:	f200 80c5 	bhi.w	8002cae <HAL_RCCEx_PeriphCLKConfig+0x1a4>
 8002b24:	2b00      	cmp	r3, #0
 8002b26:	f000 80db 	beq.w	8002ce0 <HAL_RCCEx_PeriphCLKConfig+0x1d6>
 8002b2a:	2501      	movs	r5, #1
 8002b2c:	6823      	ldr	r3, [r4, #0]
 8002b2e:	0518      	lsls	r0, r3, #20
 8002b30:	d515      	bpl.n	8002b5e <HAL_RCCEx_PeriphCLKConfig+0x54>
 8002b32:	f04f 46b0 	mov.w	r6, #1476395008	; 0x58000000
 8002b36:	6c23      	ldr	r3, [r4, #64]	; 0x40
 8002b38:	f8d6 7090 	ldr.w	r7, [r6, #144]	; 0x90
 8002b3c:	f407 7740 	and.w	r7, r7, #768	; 0x300
 8002b40:	42bb      	cmp	r3, r7
 8002b42:	d00c      	beq.n	8002b5e <HAL_RCCEx_PeriphCLKConfig+0x54>
 8002b44:	f7ff fab6 	bl	80020b4 <HAL_PWR_EnableBkUpAccess>
 8002b48:	f8d6 3090 	ldr.w	r3, [r6, #144]	; 0x90
 8002b4c:	2f00      	cmp	r7, #0
 8002b4e:	f040 80fb 	bne.w	8002d48 <HAL_RCCEx_PeriphCLKConfig+0x23e>
 8002b52:	6c22      	ldr	r2, [r4, #64]	; 0x40
 8002b54:	f423 7340 	bic.w	r3, r3, #768	; 0x300
 8002b58:	4313      	orrs	r3, r2
 8002b5a:	f8c6 3090 	str.w	r3, [r6, #144]	; 0x90
 8002b5e:	6823      	ldr	r3, [r4, #0]
 8002b60:	07da      	lsls	r2, r3, #31
 8002b62:	d509      	bpl.n	8002b78 <HAL_RCCEx_PeriphCLKConfig+0x6e>
 8002b64:	f04f 41b0 	mov.w	r1, #1476395008	; 0x58000000
 8002b68:	69a0      	ldr	r0, [r4, #24]
 8002b6a:	f8d1 2088 	ldr.w	r2, [r1, #136]	; 0x88
 8002b6e:	f022 0203 	bic.w	r2, r2, #3
 8002b72:	4302      	orrs	r2, r0
 8002b74:	f8c1 2088 	str.w	r2, [r1, #136]	; 0x88
 8002b78:	079f      	lsls	r7, r3, #30
 8002b7a:	d509      	bpl.n	8002b90 <HAL_RCCEx_PeriphCLKConfig+0x86>
 8002b7c:	f04f 41b0 	mov.w	r1, #1476395008	; 0x58000000
 8002b80:	69e0      	ldr	r0, [r4, #28]
 8002b82:	f8d1 2088 	ldr.w	r2, [r1, #136]	; 0x88
 8002b86:	f422 6240 	bic.w	r2, r2, #3072	; 0xc00
 8002b8a:	4302      	orrs	r2, r0
 8002b8c:	f8c1 2088 	str.w	r2, [r1, #136]	; 0x88
 8002b90:	06de      	lsls	r6, r3, #27
 8002b92:	d50c      	bpl.n	8002bae <HAL_RCCEx_PeriphCLKConfig+0xa4>
 8002b94:	6aa6      	ldr	r6, [r4, #40]	; 0x28
 8002b96:	f04f 40b0 	mov.w	r0, #1476395008	; 0x58000000
 8002b9a:	0c31      	lsrs	r1, r6, #16
 8002b9c:	f8d0 2088 	ldr.w	r2, [r0, #136]	; 0x88
 8002ba0:	0409      	lsls	r1, r1, #16
 8002ba2:	ea22 0201 	bic.w	r2, r2, r1
 8002ba6:	ea42 4206 	orr.w	r2, r2, r6, lsl #16
 8002baa:	f8c0 2088 	str.w	r2, [r0, #136]	; 0x88
 8002bae:	0698      	lsls	r0, r3, #26
 8002bb0:	d50c      	bpl.n	8002bcc <HAL_RCCEx_PeriphCLKConfig+0xc2>
 8002bb2:	6ae6      	ldr	r6, [r4, #44]	; 0x2c
 8002bb4:	f04f 40b0 	mov.w	r0, #1476395008	; 0x58000000
 8002bb8:	0c31      	lsrs	r1, r6, #16
 8002bba:	f8d0 2088 	ldr.w	r2, [r0, #136]	; 0x88
 8002bbe:	0409      	lsls	r1, r1, #16
 8002bc0:	ea22 0201 	bic.w	r2, r2, r1
 8002bc4:	ea42 4206 	orr.w	r2, r2, r6, lsl #16
 8002bc8:	f8c0 2088 	str.w	r2, [r0, #136]	; 0x88
 8002bcc:	0759      	lsls	r1, r3, #29
 8002bce:	d502      	bpl.n	8002bd6 <HAL_RCCEx_PeriphCLKConfig+0xcc>
 8002bd0:	6a20      	ldr	r0, [r4, #32]
 8002bd2:	f7ff ff76 	bl	8002ac2 <LL_RCC_SetI2CClockSource>
 8002bd6:	6823      	ldr	r3, [r4, #0]
 8002bd8:	071a      	lsls	r2, r3, #28
 8002bda:	d502      	bpl.n	8002be2 <HAL_RCCEx_PeriphCLKConfig+0xd8>
 8002bdc:	6a60      	ldr	r0, [r4, #36]	; 0x24
 8002bde:	f7ff ff70 	bl	8002ac2 <LL_RCC_SetI2CClockSource>
 8002be2:	6823      	ldr	r3, [r4, #0]
 8002be4:	05db      	lsls	r3, r3, #23
 8002be6:	d511      	bpl.n	8002c0c <HAL_RCCEx_PeriphCLKConfig+0x102>
 8002be8:	f04f 42b0 	mov.w	r2, #1476395008	; 0x58000000
 8002bec:	6b61      	ldr	r1, [r4, #52]	; 0x34
 8002bee:	f8d2 3088 	ldr.w	r3, [r2, #136]	; 0x88
 8002bf2:	f023 6340 	bic.w	r3, r3, #201326592	; 0xc000000
 8002bf6:	430b      	orrs	r3, r1
 8002bf8:	f1b1 6f00 	cmp.w	r1, #134217728	; 0x8000000
 8002bfc:	f8c2 3088 	str.w	r3, [r2, #136]	; 0x88
 8002c00:	f040 80ca 	bne.w	8002d98 <HAL_RCCEx_PeriphCLKConfig+0x28e>
 8002c04:	68d3      	ldr	r3, [r2, #12]
 8002c06:	f043 7380 	orr.w	r3, r3, #16777216	; 0x1000000
 8002c0a:	60d3      	str	r3, [r2, #12]
 8002c0c:	6826      	ldr	r6, [r4, #0]
 8002c0e:	05b7      	lsls	r7, r6, #22
 8002c10:	d51a      	bpl.n	8002c48 <HAL_RCCEx_PeriphCLKConfig+0x13e>
 8002c12:	6ba2      	ldr	r2, [r4, #56]	; 0x38
 8002c14:	f1b2 4f00 	cmp.w	r2, #2147483648	; 0x80000000
 8002c18:	f04f 43b0 	mov.w	r3, #1476395008	; 0x58000000
 8002c1c:	d003      	beq.n	8002c26 <HAL_RCCEx_PeriphCLKConfig+0x11c>
 8002c1e:	f032 4180 	bics.w	r1, r2, #1073741824	; 0x40000000
 8002c22:	f040 80f1 	bne.w	8002e08 <HAL_RCCEx_PeriphCLKConfig+0x2fe>
 8002c26:	f8d3 1088 	ldr.w	r1, [r3, #136]	; 0x88
 8002c2a:	f021 4140 	bic.w	r1, r1, #3221225472	; 0xc0000000
 8002c2e:	4311      	orrs	r1, r2
 8002c30:	f1b2 5fc0 	cmp.w	r2, #402653184	; 0x18000000
 8002c34:	bf08      	it	eq
 8002c36:	f04f 42b0 	moveq.w	r2, #1476395008	; 0x58000000
 8002c3a:	f8c3 1088 	str.w	r1, [r3, #136]	; 0x88
 8002c3e:	bf02      	ittt	eq
 8002c40:	68d3      	ldreq	r3, [r2, #12]
 8002c42:	f043 7380 	orreq.w	r3, r3, #16777216	; 0x1000000
 8002c46:	60d3      	streq	r3, [r2, #12]
 8002c48:	0570      	lsls	r0, r6, #21
 8002c4a:	d511      	bpl.n	8002c70 <HAL_RCCEx_PeriphCLKConfig+0x166>
 8002c4c:	f04f 42b0 	mov.w	r2, #1476395008	; 0x58000000
 8002c50:	6be1      	ldr	r1, [r4, #60]	; 0x3c
 8002c52:	f8d2 3088 	ldr.w	r3, [r2, #136]	; 0x88
 8002c56:	f023 5340 	bic.w	r3, r3, #805306368	; 0x30000000
 8002c5a:	430b      	orrs	r3, r1
 8002c5c:	f1b1 5f00 	cmp.w	r1, #536870912	; 0x20000000
 8002c60:	f8c2 3088 	str.w	r3, [r2, #136]	; 0x88
 8002c64:	f040 80de 	bne.w	8002e24 <HAL_RCCEx_PeriphCLKConfig+0x31a>
 8002c68:	68d3      	ldr	r3, [r2, #12]
 8002c6a:	f443 3380 	orr.w	r3, r3, #65536	; 0x10000
 8002c6e:	60d3      	str	r3, [r2, #12]
 8002c70:	6822      	ldr	r2, [r4, #0]
 8002c72:	04d1      	lsls	r1, r2, #19
 8002c74:	d509      	bpl.n	8002c8a <HAL_RCCEx_PeriphCLKConfig+0x180>
 8002c76:	f04f 41b0 	mov.w	r1, #1476395008	; 0x58000000
 8002c7a:	6c60      	ldr	r0, [r4, #68]	; 0x44
 8002c7c:	f8d1 3094 	ldr.w	r3, [r1, #148]	; 0x94
 8002c80:	f423 4340 	bic.w	r3, r3, #49152	; 0xc000
 8002c84:	4303      	orrs	r3, r0
 8002c86:	f8c1 3094 	str.w	r3, [r1, #148]	; 0x94
 8002c8a:	0493      	lsls	r3, r2, #18
 8002c8c:	d50d      	bpl.n	8002caa <HAL_RCCEx_PeriphCLKConfig+0x1a0>
 8002c8e:	f04f 42b0 	mov.w	r2, #1476395008	; 0x58000000
 8002c92:	6ce1      	ldr	r1, [r4, #76]	; 0x4c
 8002c94:	6a53      	ldr	r3, [r2, #36]	; 0x24
 8002c96:	f023 0330 	bic.w	r3, r3, #48	; 0x30
 8002c9a:	430b      	orrs	r3, r1
 8002c9c:	6253      	str	r3, [r2, #36]	; 0x24
 8002c9e:	6a53      	ldr	r3, [r2, #36]	; 0x24
 8002ca0:	6ca1      	ldr	r1, [r4, #72]	; 0x48
 8002ca2:	f023 0303 	bic.w	r3, r3, #3
 8002ca6:	430b      	orrs	r3, r1
 8002ca8:	6253      	str	r3, [r2, #36]	; 0x24
 8002caa:	4628      	mov	r0, r5
 8002cac:	bdf8      	pop	{r3, r4, r5, r6, r7, pc}
 8002cae:	f423 0380 	bic.w	r3, r3, #4194304	; 0x400000
 8002cb2:	f5b3 0f00 	cmp.w	r3, #8388608	; 0x800000
 8002cb6:	f47f af38 	bne.w	8002b2a <HAL_RCCEx_PeriphCLKConfig+0x20>
 8002cba:	f04f 42b0 	mov.w	r2, #1476395008	; 0x58000000
 8002cbe:	6b21      	ldr	r1, [r4, #48]	; 0x30
 8002cc0:	f8d2 3088 	ldr.w	r3, [r2, #136]	; 0x88
 8002cc4:	f423 0340 	bic.w	r3, r3, #12582912	; 0xc00000
 8002cc8:	430b      	orrs	r3, r1
 8002cca:	f8c2 3088 	str.w	r3, [r2, #136]	; 0x88
 8002cce:	2500      	movs	r5, #0
 8002cd0:	e72c      	b.n	8002b2c <HAL_RCCEx_PeriphCLKConfig+0x22>
 8002cd2:	f04f 42b0 	mov.w	r2, #1476395008	; 0x58000000
 8002cd6:	68d3      	ldr	r3, [r2, #12]
 8002cd8:	f443 3380 	orr.w	r3, r3, #65536	; 0x10000
 8002cdc:	60d3      	str	r3, [r2, #12]
 8002cde:	e7ec      	b.n	8002cba <HAL_RCCEx_PeriphCLKConfig+0x1b0>
 8002ce0:	f7ff ff06 	bl	8002af0 <LL_RCC_PLLSAI1_Disable>
 8002ce4:	f7fe fd9c 	bl	8001820 <HAL_GetTick>
 8002ce8:	4605      	mov	r5, r0
 8002cea:	f7ff ff08 	bl	8002afe <LL_RCC_PLLSAI1_IsReady>
 8002cee:	b9a0      	cbnz	r0, 8002d1a <HAL_RCCEx_PeriphCLKConfig+0x210>
 8002cf0:	f04f 42b0 	mov.w	r2, #1476395008	; 0x58000000
 8002cf4:	6861      	ldr	r1, [r4, #4]
 8002cf6:	6913      	ldr	r3, [r2, #16]
 8002cf8:	f423 43fe 	bic.w	r3, r3, #32512	; 0x7f00
 8002cfc:	ea43 2301 	orr.w	r3, r3, r1, lsl #8
 8002d00:	6113      	str	r3, [r2, #16]
 8002d02:	6913      	ldr	r3, [r2, #16]
 8002d04:	68a1      	ldr	r1, [r4, #8]
 8002d06:	f423 1378 	bic.w	r3, r3, #4063232	; 0x3e0000
 8002d0a:	430b      	orrs	r3, r1
 8002d0c:	6113      	str	r3, [r2, #16]
 8002d0e:	f7ff fee8 	bl	8002ae2 <LL_RCC_PLLSAI1_Enable>
 8002d12:	f7fe fd85 	bl	8001820 <HAL_GetTick>
 8002d16:	4605      	mov	r5, r0
 8002d18:	e00b      	b.n	8002d32 <HAL_RCCEx_PeriphCLKConfig+0x228>
 8002d1a:	f7fe fd81 	bl	8001820 <HAL_GetTick>
 8002d1e:	1b40      	subs	r0, r0, r5
 8002d20:	2802      	cmp	r0, #2
 8002d22:	d9e2      	bls.n	8002cea <HAL_RCCEx_PeriphCLKConfig+0x1e0>
 8002d24:	2503      	movs	r5, #3
 8002d26:	e701      	b.n	8002b2c <HAL_RCCEx_PeriphCLKConfig+0x22>
 8002d28:	f7fe fd7a 	bl	8001820 <HAL_GetTick>
 8002d2c:	1b40      	subs	r0, r0, r5
 8002d2e:	2802      	cmp	r0, #2
 8002d30:	d8f8      	bhi.n	8002d24 <HAL_RCCEx_PeriphCLKConfig+0x21a>
 8002d32:	f7ff fee4 	bl	8002afe <LL_RCC_PLLSAI1_IsReady>
 8002d36:	2801      	cmp	r0, #1
 8002d38:	d1f6      	bne.n	8002d28 <HAL_RCCEx_PeriphCLKConfig+0x21e>
 8002d3a:	f04f 42b0 	mov.w	r2, #1476395008	; 0x58000000
 8002d3e:	6961      	ldr	r1, [r4, #20]
 8002d40:	6913      	ldr	r3, [r2, #16]
 8002d42:	430b      	orrs	r3, r1
 8002d44:	6113      	str	r3, [r2, #16]
 8002d46:	e7b8      	b.n	8002cba <HAL_RCCEx_PeriphCLKConfig+0x1b0>
 8002d48:	f8d6 2090 	ldr.w	r2, [r6, #144]	; 0x90
 8002d4c:	f442 3280 	orr.w	r2, r2, #65536	; 0x10000
 8002d50:	f8c6 2090 	str.w	r2, [r6, #144]	; 0x90
 8002d54:	f8d6 2090 	ldr.w	r2, [r6, #144]	; 0x90
 8002d58:	f422 3280 	bic.w	r2, r2, #65536	; 0x10000
 8002d5c:	f8c6 2090 	str.w	r2, [r6, #144]	; 0x90
 8002d60:	6c22      	ldr	r2, [r4, #64]	; 0x40
 8002d62:	f423 7340 	bic.w	r3, r3, #768	; 0x300
 8002d66:	4313      	orrs	r3, r2
 8002d68:	f8c6 3090 	str.w	r3, [r6, #144]	; 0x90
 8002d6c:	f8d6 3090 	ldr.w	r3, [r6, #144]	; 0x90
 8002d70:	07d9      	lsls	r1, r3, #31
 8002d72:	f57f aef4 	bpl.w	8002b5e <HAL_RCCEx_PeriphCLKConfig+0x54>
 8002d76:	f7fe fd53 	bl	8001820 <HAL_GetTick>
 8002d7a:	f241 3788 	movw	r7, #5000	; 0x1388
 8002d7e:	4606      	mov	r6, r0
 8002d80:	f7ff fe98 	bl	8002ab4 <LL_RCC_LSE_IsReady>
 8002d84:	2801      	cmp	r0, #1
 8002d86:	f43f aeea 	beq.w	8002b5e <HAL_RCCEx_PeriphCLKConfig+0x54>
 8002d8a:	f7fe fd49 	bl	8001820 <HAL_GetTick>
 8002d8e:	1b80      	subs	r0, r0, r6
 8002d90:	42b8      	cmp	r0, r7
 8002d92:	d9f5      	bls.n	8002d80 <HAL_RCCEx_PeriphCLKConfig+0x276>
 8002d94:	2503      	movs	r5, #3
 8002d96:	e6e2      	b.n	8002b5e <HAL_RCCEx_PeriphCLKConfig+0x54>
 8002d98:	f1b1 6f80 	cmp.w	r1, #67108864	; 0x4000000
 8002d9c:	f47f af36 	bne.w	8002c0c <HAL_RCCEx_PeriphCLKConfig+0x102>
 8002da0:	f7ff fea6 	bl	8002af0 <LL_RCC_PLLSAI1_Disable>
 8002da4:	f7fe fd3c 	bl	8001820 <HAL_GetTick>
 8002da8:	4606      	mov	r6, r0
 8002daa:	f7ff fea8 	bl	8002afe <LL_RCC_PLLSAI1_IsReady>
 8002dae:	b9a0      	cbnz	r0, 8002dda <HAL_RCCEx_PeriphCLKConfig+0x2d0>
 8002db0:	f04f 42b0 	mov.w	r2, #1476395008	; 0x58000000
 8002db4:	6861      	ldr	r1, [r4, #4]
 8002db6:	6913      	ldr	r3, [r2, #16]
 8002db8:	f423 43fe 	bic.w	r3, r3, #32512	; 0x7f00
 8002dbc:	ea43 2301 	orr.w	r3, r3, r1, lsl #8
 8002dc0:	6113      	str	r3, [r2, #16]
 8002dc2:	6913      	ldr	r3, [r2, #16]
 8002dc4:	68e1      	ldr	r1, [r4, #12]
 8002dc6:	f023 6360 	bic.w	r3, r3, #234881024	; 0xe000000
 8002dca:	430b      	orrs	r3, r1
 8002dcc:	6113      	str	r3, [r2, #16]
 8002dce:	f7ff fe88 	bl	8002ae2 <LL_RCC_PLLSAI1_Enable>
 8002dd2:	f7fe fd25 	bl	8001820 <HAL_GetTick>
 8002dd6:	4606      	mov	r6, r0
 8002dd8:	e00b      	b.n	8002df2 <HAL_RCCEx_PeriphCLKConfig+0x2e8>
 8002dda:	f7fe fd21 	bl	8001820 <HAL_GetTick>
 8002dde:	1b80      	subs	r0, r0, r6
 8002de0:	2802      	cmp	r0, #2
 8002de2:	d9e2      	bls.n	8002daa <HAL_RCCEx_PeriphCLKConfig+0x2a0>
 8002de4:	2503      	movs	r5, #3
 8002de6:	e711      	b.n	8002c0c <HAL_RCCEx_PeriphCLKConfig+0x102>
 8002de8:	f7fe fd1a 	bl	8001820 <HAL_GetTick>
 8002dec:	1b80      	subs	r0, r0, r6
 8002dee:	2802      	cmp	r0, #2
 8002df0:	d8f8      	bhi.n	8002de4 <HAL_RCCEx_PeriphCLKConfig+0x2da>
 8002df2:	f7ff fe84 	bl	8002afe <LL_RCC_PLLSAI1_IsReady>
 8002df6:	2801      	cmp	r0, #1
 8002df8:	d1f6      	bne.n	8002de8 <HAL_RCCEx_PeriphCLKConfig+0x2de>
 8002dfa:	f04f 42b0 	mov.w	r2, #1476395008	; 0x58000000
 8002dfe:	6961      	ldr	r1, [r4, #20]
 8002e00:	6913      	ldr	r3, [r2, #16]
 8002e02:	430b      	orrs	r3, r1
 8002e04:	6113      	str	r3, [r2, #16]
 8002e06:	e701      	b.n	8002c0c <HAL_RCCEx_PeriphCLKConfig+0x102>
 8002e08:	f8d3 1088 	ldr.w	r1, [r3, #136]	; 0x88
 8002e0c:	f021 4140 	bic.w	r1, r1, #3221225472	; 0xc0000000
 8002e10:	f8c3 1088 	str.w	r1, [r3, #136]	; 0x88
 8002e14:	f8d3 0088 	ldr.w	r0, [r3, #136]	; 0x88
 8002e18:	f022 5180 	bic.w	r1, r2, #268435456	; 0x10000000
 8002e1c:	f020 6040 	bic.w	r0, r0, #201326592	; 0xc000000
 8002e20:	4301      	orrs	r1, r0
 8002e22:	e705      	b.n	8002c30 <HAL_RCCEx_PeriphCLKConfig+0x126>
 8002e24:	f1b1 5f80 	cmp.w	r1, #268435456	; 0x10000000
 8002e28:	f47f af22 	bne.w	8002c70 <HAL_RCCEx_PeriphCLKConfig+0x166>
 8002e2c:	f7ff fe60 	bl	8002af0 <LL_RCC_PLLSAI1_Disable>
 8002e30:	f7fe fcf6 	bl	8001820 <HAL_GetTick>
 8002e34:	4606      	mov	r6, r0
 8002e36:	f7ff fe62 	bl	8002afe <LL_RCC_PLLSAI1_IsReady>
 8002e3a:	b9a0      	cbnz	r0, 8002e66 <HAL_RCCEx_PeriphCLKConfig+0x35c>
 8002e3c:	f04f 42b0 	mov.w	r2, #1476395008	; 0x58000000
 8002e40:	6861      	ldr	r1, [r4, #4]
 8002e42:	6913      	ldr	r3, [r2, #16]
 8002e44:	f423 43fe 	bic.w	r3, r3, #32512	; 0x7f00
 8002e48:	ea43 2301 	orr.w	r3, r3, r1, lsl #8
 8002e4c:	6113      	str	r3, [r2, #16]
 8002e4e:	6913      	ldr	r3, [r2, #16]
 8002e50:	6921      	ldr	r1, [r4, #16]
 8002e52:	f023 4360 	bic.w	r3, r3, #3758096384	; 0xe0000000
 8002e56:	430b      	orrs	r3, r1
 8002e58:	6113      	str	r3, [r2, #16]
 8002e5a:	f7ff fe42 	bl	8002ae2 <LL_RCC_PLLSAI1_Enable>
 8002e5e:	f7fe fcdf 	bl	8001820 <HAL_GetTick>
 8002e62:	4606      	mov	r6, r0
 8002e64:	e00b      	b.n	8002e7e <HAL_RCCEx_PeriphCLKConfig+0x374>
 8002e66:	f7fe fcdb 	bl	8001820 <HAL_GetTick>
 8002e6a:	1b80      	subs	r0, r0, r6
 8002e6c:	2802      	cmp	r0, #2
 8002e6e:	d9e2      	bls.n	8002e36 <HAL_RCCEx_PeriphCLKConfig+0x32c>
 8002e70:	2503      	movs	r5, #3
 8002e72:	e6fd      	b.n	8002c70 <HAL_RCCEx_PeriphCLKConfig+0x166>
 8002e74:	f7fe fcd4 	bl	8001820 <HAL_GetTick>
 8002e78:	1b80      	subs	r0, r0, r6
 8002e7a:	2802      	cmp	r0, #2
 8002e7c:	d8f8      	bhi.n	8002e70 <HAL_RCCEx_PeriphCLKConfig+0x366>
 8002e7e:	f7ff fe3e 	bl	8002afe <LL_RCC_PLLSAI1_IsReady>
 8002e82:	2801      	cmp	r0, #1
 8002e84:	d1f6      	bne.n	8002e74 <HAL_RCCEx_PeriphCLKConfig+0x36a>
 8002e86:	f04f 42b0 	mov.w	r2, #1476395008	; 0x58000000
 8002e8a:	6961      	ldr	r1, [r4, #20]
 8002e8c:	6913      	ldr	r3, [r2, #16]
 8002e8e:	430b      	orrs	r3, r1
 8002e90:	6113      	str	r3, [r2, #16]
 8002e92:	e6ed      	b.n	8002c70 <HAL_RCCEx_PeriphCLKConfig+0x166>

08002e94 <HAL_RTC_WaitForSynchro>:
 8002e94:	6802      	ldr	r2, [r0, #0]
 8002e96:	b538      	push	{r3, r4, r5, lr}
 8002e98:	68d3      	ldr	r3, [r2, #12]
 8002e9a:	f023 03a0 	bic.w	r3, r3, #160	; 0xa0
 8002e9e:	60d3      	str	r3, [r2, #12]
 8002ea0:	4604      	mov	r4, r0
 8002ea2:	f7fe fcbd 	bl	8001820 <HAL_GetTick>
 8002ea6:	4605      	mov	r5, r0
 8002ea8:	6823      	ldr	r3, [r4, #0]
 8002eaa:	68db      	ldr	r3, [r3, #12]
 8002eac:	069b      	lsls	r3, r3, #26
 8002eae:	d501      	bpl.n	8002eb4 <HAL_RTC_WaitForSynchro+0x20>
 8002eb0:	2000      	movs	r0, #0
 8002eb2:	bd38      	pop	{r3, r4, r5, pc}
 8002eb4:	f7fe fcb4 	bl	8001820 <HAL_GetTick>
 8002eb8:	1b40      	subs	r0, r0, r5
 8002eba:	f5b0 7f7a 	cmp.w	r0, #1000	; 0x3e8
 8002ebe:	d9f3      	bls.n	8002ea8 <HAL_RTC_WaitForSynchro+0x14>
 8002ec0:	2003      	movs	r0, #3
 8002ec2:	e7f6      	b.n	8002eb2 <HAL_RTC_WaitForSynchro+0x1e>

08002ec4 <RTC_EnterInitMode>:
 8002ec4:	b538      	push	{r3, r4, r5, lr}
 8002ec6:	6803      	ldr	r3, [r0, #0]
 8002ec8:	68da      	ldr	r2, [r3, #12]
 8002eca:	0652      	lsls	r2, r2, #25
 8002ecc:	4604      	mov	r4, r0
 8002ece:	d501      	bpl.n	8002ed4 <RTC_EnterInitMode+0x10>
 8002ed0:	2000      	movs	r0, #0
 8002ed2:	bd38      	pop	{r3, r4, r5, pc}
 8002ed4:	f04f 32ff 	mov.w	r2, #4294967295
 8002ed8:	60da      	str	r2, [r3, #12]
 8002eda:	f7fe fca1 	bl	8001820 <HAL_GetTick>
 8002ede:	4605      	mov	r5, r0
 8002ee0:	6823      	ldr	r3, [r4, #0]
 8002ee2:	68db      	ldr	r3, [r3, #12]
 8002ee4:	065b      	lsls	r3, r3, #25
 8002ee6:	d4f3      	bmi.n	8002ed0 <RTC_EnterInitMode+0xc>
 8002ee8:	f7fe fc9a 	bl	8001820 <HAL_GetTick>
 8002eec:	1b40      	subs	r0, r0, r5
 8002eee:	f5b0 7f7a 	cmp.w	r0, #1000	; 0x3e8
 8002ef2:	d9f5      	bls.n	8002ee0 <RTC_EnterInitMode+0x1c>
 8002ef4:	2003      	movs	r0, #3
 8002ef6:	e7ec      	b.n	8002ed2 <RTC_EnterInitMode+0xe>

08002ef8 <HAL_RTC_Init>:
 8002ef8:	b538      	push	{r3, r4, r5, lr}
 8002efa:	4604      	mov	r4, r0
 8002efc:	b1d8      	cbz	r0, 8002f36 <HAL_RTC_Init+0x3e>
 8002efe:	f890 3021 	ldrb.w	r3, [r0, #33]	; 0x21
 8002f02:	f003 02ff 	and.w	r2, r3, #255	; 0xff
 8002f06:	b91b      	cbnz	r3, 8002f10 <HAL_RTC_Init+0x18>
 8002f08:	f880 2020 	strb.w	r2, [r0, #32]
 8002f0c:	f7fe fb2e 	bl	800156c <HAL_RTC_MspInit>
 8002f10:	2302      	movs	r3, #2
 8002f12:	f884 3021 	strb.w	r3, [r4, #33]	; 0x21
 8002f16:	6823      	ldr	r3, [r4, #0]
 8002f18:	22ca      	movs	r2, #202	; 0xca
 8002f1a:	625a      	str	r2, [r3, #36]	; 0x24
 8002f1c:	2253      	movs	r2, #83	; 0x53
 8002f1e:	625a      	str	r2, [r3, #36]	; 0x24
 8002f20:	4620      	mov	r0, r4
 8002f22:	f7ff ffcf 	bl	8002ec4 <RTC_EnterInitMode>
 8002f26:	6823      	ldr	r3, [r4, #0]
 8002f28:	4605      	mov	r5, r0
 8002f2a:	b130      	cbz	r0, 8002f3a <HAL_RTC_Init+0x42>
 8002f2c:	22ff      	movs	r2, #255	; 0xff
 8002f2e:	625a      	str	r2, [r3, #36]	; 0x24
 8002f30:	2304      	movs	r3, #4
 8002f32:	f884 3021 	strb.w	r3, [r4, #33]	; 0x21
 8002f36:	2501      	movs	r5, #1
 8002f38:	e038      	b.n	8002fac <HAL_RTC_Init+0xb4>
 8002f3a:	689a      	ldr	r2, [r3, #8]
 8002f3c:	6920      	ldr	r0, [r4, #16]
 8002f3e:	f422 02e0 	bic.w	r2, r2, #7340032	; 0x700000
 8002f42:	f022 0240 	bic.w	r2, r2, #64	; 0x40
 8002f46:	609a      	str	r2, [r3, #8]
 8002f48:	6862      	ldr	r2, [r4, #4]
 8002f4a:	6899      	ldr	r1, [r3, #8]
 8002f4c:	4302      	orrs	r2, r0
 8002f4e:	69a0      	ldr	r0, [r4, #24]
 8002f50:	4302      	orrs	r2, r0
 8002f52:	430a      	orrs	r2, r1
 8002f54:	609a      	str	r2, [r3, #8]
 8002f56:	68e2      	ldr	r2, [r4, #12]
 8002f58:	611a      	str	r2, [r3, #16]
 8002f5a:	691a      	ldr	r2, [r3, #16]
 8002f5c:	68a1      	ldr	r1, [r4, #8]
 8002f5e:	6960      	ldr	r0, [r4, #20]
 8002f60:	ea42 4201 	orr.w	r2, r2, r1, lsl #16
 8002f64:	611a      	str	r2, [r3, #16]
 8002f66:	68da      	ldr	r2, [r3, #12]
 8002f68:	f022 0280 	bic.w	r2, r2, #128	; 0x80
 8002f6c:	60da      	str	r2, [r3, #12]
 8002f6e:	6cda      	ldr	r2, [r3, #76]	; 0x4c
 8002f70:	f022 0203 	bic.w	r2, r2, #3
 8002f74:	64da      	str	r2, [r3, #76]	; 0x4c
 8002f76:	69e2      	ldr	r2, [r4, #28]
 8002f78:	6cd9      	ldr	r1, [r3, #76]	; 0x4c
 8002f7a:	4302      	orrs	r2, r0
 8002f7c:	430a      	orrs	r2, r1
 8002f7e:	64da      	str	r2, [r3, #76]	; 0x4c
 8002f80:	689b      	ldr	r3, [r3, #8]
 8002f82:	069b      	lsls	r3, r3, #26
 8002f84:	d40c      	bmi.n	8002fa0 <HAL_RTC_Init+0xa8>
 8002f86:	4620      	mov	r0, r4
 8002f88:	f7ff ff84 	bl	8002e94 <HAL_RTC_WaitForSynchro>
 8002f8c:	b140      	cbz	r0, 8002fa0 <HAL_RTC_Init+0xa8>
 8002f8e:	6823      	ldr	r3, [r4, #0]
 8002f90:	22ff      	movs	r2, #255	; 0xff
 8002f92:	625a      	str	r2, [r3, #36]	; 0x24
 8002f94:	2304      	movs	r3, #4
 8002f96:	f884 3021 	strb.w	r3, [r4, #33]	; 0x21
 8002f9a:	f884 5020 	strb.w	r5, [r4, #32]
 8002f9e:	e7ca      	b.n	8002f36 <HAL_RTC_Init+0x3e>
 8002fa0:	6823      	ldr	r3, [r4, #0]
 8002fa2:	22ff      	movs	r2, #255	; 0xff
 8002fa4:	625a      	str	r2, [r3, #36]	; 0x24
 8002fa6:	2301      	movs	r3, #1
 8002fa8:	f884 3021 	strb.w	r3, [r4, #33]	; 0x21
 8002fac:	4628      	mov	r0, r5
 8002fae:	bd38      	pop	{r3, r4, r5, pc}

08002fb0 <HAL_RTCEx_SetWakeUpTimer_IT>:
 8002fb0:	e92d 41f0 	stmdb	sp!, {r4, r5, r6, r7, r8, lr}
 8002fb4:	f890 3020 	ldrb.w	r3, [r0, #32]
 8002fb8:	2b01      	cmp	r3, #1
 8002fba:	4604      	mov	r4, r0
 8002fbc:	460e      	mov	r6, r1
 8002fbe:	4615      	mov	r5, r2
 8002fc0:	f04f 0002 	mov.w	r0, #2
 8002fc4:	d058      	beq.n	8003078 <HAL_RTCEx_SetWakeUpTimer_IT+0xc8>
 8002fc6:	2301      	movs	r3, #1
 8002fc8:	f884 3020 	strb.w	r3, [r4, #32]
 8002fcc:	6823      	ldr	r3, [r4, #0]
 8002fce:	f884 0021 	strb.w	r0, [r4, #33]	; 0x21
 8002fd2:	22ca      	movs	r2, #202	; 0xca
 8002fd4:	625a      	str	r2, [r3, #36]	; 0x24
 8002fd6:	2253      	movs	r2, #83	; 0x53
 8002fd8:	625a      	str	r2, [r3, #36]	; 0x24
 8002fda:	689b      	ldr	r3, [r3, #8]
 8002fdc:	055a      	lsls	r2, r3, #21
 8002fde:	d435      	bmi.n	800304c <HAL_RTCEx_SetWakeUpTimer_IT+0x9c>
 8002fe0:	6822      	ldr	r2, [r4, #0]
 8002fe2:	6893      	ldr	r3, [r2, #8]
 8002fe4:	f423 6380 	bic.w	r3, r3, #1024	; 0x400
 8002fe8:	6093      	str	r3, [r2, #8]
 8002fea:	68d3      	ldr	r3, [r2, #12]
 8002fec:	b2db      	uxtb	r3, r3
 8002fee:	f463 6390 	orn	r3, r3, #1152	; 0x480
 8002ff2:	60d3      	str	r3, [r2, #12]
 8002ff4:	f7fe fc14 	bl	8001820 <HAL_GetTick>
 8002ff8:	4680      	mov	r8, r0
 8002ffa:	6823      	ldr	r3, [r4, #0]
 8002ffc:	68df      	ldr	r7, [r3, #12]
 8002ffe:	f017 0704 	ands.w	r7, r7, #4
 8003002:	d03b      	beq.n	800307c <HAL_RTCEx_SetWakeUpTimer_IT+0xcc>
 8003004:	615e      	str	r6, [r3, #20]
 8003006:	689a      	ldr	r2, [r3, #8]
 8003008:	f022 0207 	bic.w	r2, r2, #7
 800300c:	609a      	str	r2, [r3, #8]
 800300e:	689a      	ldr	r2, [r3, #8]
 8003010:	4315      	orrs	r5, r2
 8003012:	4a22      	ldr	r2, [pc, #136]	; (800309c <HAL_RTCEx_SetWakeUpTimer_IT+0xec>)
 8003014:	609d      	str	r5, [r3, #8]
 8003016:	f8d2 1080 	ldr.w	r1, [r2, #128]	; 0x80
 800301a:	f441 2100 	orr.w	r1, r1, #524288	; 0x80000
 800301e:	f8c2 1080 	str.w	r1, [r2, #128]	; 0x80
 8003022:	6811      	ldr	r1, [r2, #0]
 8003024:	f441 2100 	orr.w	r1, r1, #524288	; 0x80000
 8003028:	6011      	str	r1, [r2, #0]
 800302a:	689a      	ldr	r2, [r3, #8]
 800302c:	f442 4280 	orr.w	r2, r2, #16384	; 0x4000
 8003030:	609a      	str	r2, [r3, #8]
 8003032:	689a      	ldr	r2, [r3, #8]
 8003034:	f442 6280 	orr.w	r2, r2, #1024	; 0x400
 8003038:	609a      	str	r2, [r3, #8]
 800303a:	22ff      	movs	r2, #255	; 0xff
 800303c:	625a      	str	r2, [r3, #36]	; 0x24
 800303e:	2000      	movs	r0, #0
 8003040:	2301      	movs	r3, #1
 8003042:	f884 3021 	strb.w	r3, [r4, #33]	; 0x21
 8003046:	f884 0020 	strb.w	r0, [r4, #32]
 800304a:	e015      	b.n	8003078 <HAL_RTCEx_SetWakeUpTimer_IT+0xc8>
 800304c:	f7fe fbe8 	bl	8001820 <HAL_GetTick>
 8003050:	4607      	mov	r7, r0
 8003052:	6823      	ldr	r3, [r4, #0]
 8003054:	68db      	ldr	r3, [r3, #12]
 8003056:	075b      	lsls	r3, r3, #29
 8003058:	d5c2      	bpl.n	8002fe0 <HAL_RTCEx_SetWakeUpTimer_IT+0x30>
 800305a:	f7fe fbe1 	bl	8001820 <HAL_GetTick>
 800305e:	1bc0      	subs	r0, r0, r7
 8003060:	f5b0 7f7a 	cmp.w	r0, #1000	; 0x3e8
 8003064:	d9f5      	bls.n	8003052 <HAL_RTCEx_SetWakeUpTimer_IT+0xa2>
 8003066:	6823      	ldr	r3, [r4, #0]
 8003068:	22ff      	movs	r2, #255	; 0xff
 800306a:	625a      	str	r2, [r3, #36]	; 0x24
 800306c:	2003      	movs	r0, #3
 800306e:	2300      	movs	r3, #0
 8003070:	f884 0021 	strb.w	r0, [r4, #33]	; 0x21
 8003074:	f884 3020 	strb.w	r3, [r4, #32]
 8003078:	e8bd 81f0 	ldmia.w	sp!, {r4, r5, r6, r7, r8, pc}
 800307c:	f7fe fbd0 	bl	8001820 <HAL_GetTick>
 8003080:	eba0 0008 	sub.w	r0, r0, r8
 8003084:	f5b0 7f7a 	cmp.w	r0, #1000	; 0x3e8
 8003088:	d9b7      	bls.n	8002ffa <HAL_RTCEx_SetWakeUpTimer_IT+0x4a>
 800308a:	6823      	ldr	r3, [r4, #0]
 800308c:	22ff      	movs	r2, #255	; 0xff
 800308e:	2003      	movs	r0, #3
 8003090:	625a      	str	r2, [r3, #36]	; 0x24
 8003092:	f884 0021 	strb.w	r0, [r4, #33]	; 0x21
 8003096:	f884 7020 	strb.w	r7, [r4, #32]
 800309a:	e7ed      	b.n	8003078 <HAL_RTCEx_SetWakeUpTimer_IT+0xc8>
 800309c:	58000800 	.word	0x58000800

080030a0 <UART_SetConfig>:
 80030a0:	b538      	push	{r3, r4, r5, lr}
 80030a2:	4604      	mov	r4, r0
 80030a4:	6803      	ldr	r3, [r0, #0]
 80030a6:	6921      	ldr	r1, [r4, #16]
 80030a8:	68a2      	ldr	r2, [r4, #8]
 80030aa:	681d      	ldr	r5, [r3, #0]
 80030ac:	69c0      	ldr	r0, [r0, #28]
 80030ae:	430a      	orrs	r2, r1
 80030b0:	6961      	ldr	r1, [r4, #20]
 80030b2:	430a      	orrs	r2, r1
 80030b4:	4971      	ldr	r1, [pc, #452]	; (800327c <UART_SetConfig+0x1dc>)
 80030b6:	4302      	orrs	r2, r0
 80030b8:	4029      	ands	r1, r5
 80030ba:	430a      	orrs	r2, r1
 80030bc:	601a      	str	r2, [r3, #0]
 80030be:	685a      	ldr	r2, [r3, #4]
 80030c0:	68e1      	ldr	r1, [r4, #12]
 80030c2:	f422 5240 	bic.w	r2, r2, #12288	; 0x3000
 80030c6:	430a      	orrs	r2, r1
 80030c8:	605a      	str	r2, [r3, #4]
 80030ca:	4a6d      	ldr	r2, [pc, #436]	; (8003280 <UART_SetConfig+0x1e0>)
 80030cc:	69a1      	ldr	r1, [r4, #24]
 80030ce:	4293      	cmp	r3, r2
 80030d0:	bf1c      	itt	ne
 80030d2:	6a22      	ldrne	r2, [r4, #32]
 80030d4:	4311      	orrne	r1, r2
 80030d6:	689a      	ldr	r2, [r3, #8]
 80030d8:	f022 426e 	bic.w	r2, r2, #3992977408	; 0xee000000
 80030dc:	f422 6230 	bic.w	r2, r2, #2816	; 0xb00
 80030e0:	430a      	orrs	r2, r1
 80030e2:	609a      	str	r2, [r3, #8]
 80030e4:	6ada      	ldr	r2, [r3, #44]	; 0x2c
 80030e6:	6a61      	ldr	r1, [r4, #36]	; 0x24
 80030e8:	f022 020f 	bic.w	r2, r2, #15
 80030ec:	430a      	orrs	r2, r1
 80030ee:	62da      	str	r2, [r3, #44]	; 0x2c
 80030f0:	4a64      	ldr	r2, [pc, #400]	; (8003284 <UART_SetConfig+0x1e4>)
 80030f2:	4293      	cmp	r3, r2
 80030f4:	d118      	bne.n	8003128 <UART_SetConfig+0x88>
 80030f6:	f04f 43b0 	mov.w	r3, #1476395008	; 0x58000000
 80030fa:	f8d3 3088 	ldr.w	r3, [r3, #136]	; 0x88
 80030fe:	f003 0303 	and.w	r3, r3, #3
 8003102:	3b01      	subs	r3, #1
 8003104:	2b02      	cmp	r3, #2
 8003106:	f200 8095 	bhi.w	8003234 <UART_SetConfig+0x194>
 800310a:	4a5f      	ldr	r2, [pc, #380]	; (8003288 <UART_SetConfig+0x1e8>)
 800310c:	5cd3      	ldrb	r3, [r2, r3]
 800310e:	f5b0 4f00 	cmp.w	r0, #32768	; 0x8000
 8003112:	f103 33ff 	add.w	r3, r3, #4294967295
 8003116:	d056      	beq.n	80031c6 <UART_SetConfig+0x126>
 8003118:	2b07      	cmp	r3, #7
 800311a:	d816      	bhi.n	800314a <UART_SetConfig+0xaa>
 800311c:	e8df f003 	tbb	[pc, r3]
 8003120:	85158880 	.word	0x85158880
 8003124:	6d151515 	.word	0x6d151515
 8003128:	4a55      	ldr	r2, [pc, #340]	; (8003280 <UART_SetConfig+0x1e0>)
 800312a:	4293      	cmp	r3, r2
 800312c:	d10d      	bne.n	800314a <UART_SetConfig+0xaa>
 800312e:	f04f 43b0 	mov.w	r3, #1476395008	; 0x58000000
 8003132:	f8d3 3088 	ldr.w	r3, [r3, #136]	; 0x88
 8003136:	f403 6340 	and.w	r3, r3, #3072	; 0xc00
 800313a:	f5b3 6f00 	cmp.w	r3, #2048	; 0x800
 800313e:	d01a      	beq.n	8003176 <UART_SetConfig+0xd6>
 8003140:	d805      	bhi.n	800314e <UART_SetConfig+0xae>
 8003142:	b153      	cbz	r3, 800315a <UART_SetConfig+0xba>
 8003144:	f5b3 6f80 	cmp.w	r3, #1024	; 0x400
 8003148:	d012      	beq.n	8003170 <UART_SetConfig+0xd0>
 800314a:	2001      	movs	r0, #1
 800314c:	e009      	b.n	8003162 <UART_SetConfig+0xc2>
 800314e:	f5b3 6f40 	cmp.w	r3, #3072	; 0xc00
 8003152:	d1fa      	bne.n	800314a <UART_SetConfig+0xaa>
 8003154:	f44f 4000 	mov.w	r0, #32768	; 0x8000
 8003158:	e00e      	b.n	8003178 <UART_SetConfig+0xd8>
 800315a:	f7ff fc87 	bl	8002a6c <HAL_RCC_GetPCLK1Freq>
 800315e:	b958      	cbnz	r0, 8003178 <UART_SetConfig+0xd8>
 8003160:	2000      	movs	r0, #0
 8003162:	f04f 1301 	mov.w	r3, #65537	; 0x10001
 8003166:	66a3      	str	r3, [r4, #104]	; 0x68
 8003168:	2300      	movs	r3, #0
 800316a:	e9c4 331c 	strd	r3, r3, [r4, #112]	; 0x70
 800316e:	bd38      	pop	{r3, r4, r5, pc}
 8003170:	f7ff f84e 	bl	8002210 <HAL_RCC_GetSysClockFreq>
 8003174:	e7f3      	b.n	800315e <UART_SetConfig+0xbe>
 8003176:	4845      	ldr	r0, [pc, #276]	; (800328c <UART_SetConfig+0x1ec>)
 8003178:	6865      	ldr	r5, [r4, #4]
 800317a:	4b45      	ldr	r3, [pc, #276]	; (8003290 <UART_SetConfig+0x1f0>)
 800317c:	6a62      	ldr	r2, [r4, #36]	; 0x24
 800317e:	eb05 0145 	add.w	r1, r5, r5, lsl #1
 8003182:	f833 2012 	ldrh.w	r2, [r3, r2, lsl #1]
 8003186:	fbb0 f3f2 	udiv	r3, r0, r2
 800318a:	4299      	cmp	r1, r3
 800318c:	d8dd      	bhi.n	800314a <UART_SetConfig+0xaa>
 800318e:	ebb3 3f05 	cmp.w	r3, r5, lsl #12
 8003192:	d8da      	bhi.n	800314a <UART_SetConfig+0xaa>
 8003194:	2300      	movs	r3, #0
 8003196:	4619      	mov	r1, r3
 8003198:	f7fd f84a 	bl	8000230 <__aeabi_uldivmod>
 800319c:	0209      	lsls	r1, r1, #8
 800319e:	ea41 6110 	orr.w	r1, r1, r0, lsr #24
 80031a2:	086b      	lsrs	r3, r5, #1
 80031a4:	0200      	lsls	r0, r0, #8
 80031a6:	18c0      	adds	r0, r0, r3
 80031a8:	462a      	mov	r2, r5
 80031aa:	f04f 0300 	mov.w	r3, #0
 80031ae:	f141 0100 	adc.w	r1, r1, #0
 80031b2:	f7fd f83d 	bl	8000230 <__aeabi_uldivmod>
 80031b6:	4b37      	ldr	r3, [pc, #220]	; (8003294 <UART_SetConfig+0x1f4>)
 80031b8:	f5a0 7240 	sub.w	r2, r0, #768	; 0x300
 80031bc:	429a      	cmp	r2, r3
 80031be:	d8c4      	bhi.n	800314a <UART_SetConfig+0xaa>
 80031c0:	6823      	ldr	r3, [r4, #0]
 80031c2:	60d8      	str	r0, [r3, #12]
 80031c4:	e7cc      	b.n	8003160 <UART_SetConfig+0xc0>
 80031c6:	2b07      	cmp	r3, #7
 80031c8:	d8bf      	bhi.n	800314a <UART_SetConfig+0xaa>
 80031ca:	a201      	add	r2, pc, #4	; (adr r2, 80031d0 <UART_SetConfig+0x130>)
 80031cc:	f852 f023 	ldr.w	pc, [r2, r3, lsl #2]
 80031d0:	0800323b 	.word	0x0800323b
 80031d4:	080031f7 	.word	0x080031f7
 80031d8:	0800314b 	.word	0x0800314b
 80031dc:	080031f1 	.word	0x080031f1
 80031e0:	0800314b 	.word	0x0800314b
 80031e4:	0800314b 	.word	0x0800314b
 80031e8:	0800314b 	.word	0x0800314b
 80031ec:	08003243 	.word	0x08003243
 80031f0:	f7ff f80e 	bl	8002210 <HAL_RCC_GetSysClockFreq>
 80031f4:	e023      	b.n	800323e <UART_SetConfig+0x19e>
 80031f6:	4825      	ldr	r0, [pc, #148]	; (800328c <UART_SetConfig+0x1ec>)
 80031f8:	e023      	b.n	8003242 <UART_SetConfig+0x1a2>
 80031fa:	f44f 4000 	mov.w	r0, #32768	; 0x8000
 80031fe:	6863      	ldr	r3, [r4, #4]
 8003200:	6a61      	ldr	r1, [r4, #36]	; 0x24
 8003202:	4a23      	ldr	r2, [pc, #140]	; (8003290 <UART_SetConfig+0x1f0>)
 8003204:	f832 2011 	ldrh.w	r2, [r2, r1, lsl #1]
 8003208:	fbb0 f0f2 	udiv	r0, r0, r2
 800320c:	eb00 0053 	add.w	r0, r0, r3, lsr #1
 8003210:	fbb0 f0f3 	udiv	r0, r0, r3
 8003214:	b280      	uxth	r0, r0
 8003216:	f1a0 0210 	sub.w	r2, r0, #16
 800321a:	f64f 73ef 	movw	r3, #65519	; 0xffef
 800321e:	e7cd      	b.n	80031bc <UART_SetConfig+0x11c>
 8003220:	f7ff fc36 	bl	8002a90 <HAL_RCC_GetPCLK2Freq>
 8003224:	2800      	cmp	r0, #0
 8003226:	d09b      	beq.n	8003160 <UART_SetConfig+0xc0>
 8003228:	e7e9      	b.n	80031fe <UART_SetConfig+0x15e>
 800322a:	f7fe fff1 	bl	8002210 <HAL_RCC_GetSysClockFreq>
 800322e:	e7f9      	b.n	8003224 <UART_SetConfig+0x184>
 8003230:	4816      	ldr	r0, [pc, #88]	; (800328c <UART_SetConfig+0x1ec>)
 8003232:	e7e4      	b.n	80031fe <UART_SetConfig+0x15e>
 8003234:	f5b0 4f00 	cmp.w	r0, #32768	; 0x8000
 8003238:	d1f2      	bne.n	8003220 <UART_SetConfig+0x180>
 800323a:	f7ff fc29 	bl	8002a90 <HAL_RCC_GetPCLK2Freq>
 800323e:	2800      	cmp	r0, #0
 8003240:	d08e      	beq.n	8003160 <UART_SetConfig+0xc0>
 8003242:	6862      	ldr	r2, [r4, #4]
 8003244:	6a61      	ldr	r1, [r4, #36]	; 0x24
 8003246:	4b12      	ldr	r3, [pc, #72]	; (8003290 <UART_SetConfig+0x1f0>)
 8003248:	f833 3011 	ldrh.w	r3, [r3, r1, lsl #1]
 800324c:	fbb0 f3f3 	udiv	r3, r0, r3
 8003250:	0850      	lsrs	r0, r2, #1
 8003252:	eb00 0043 	add.w	r0, r0, r3, lsl #1
 8003256:	fbb0 f0f2 	udiv	r0, r0, r2
 800325a:	b283      	uxth	r3, r0
 800325c:	f1a3 0110 	sub.w	r1, r3, #16
 8003260:	f64f 72ef 	movw	r2, #65519	; 0xffef
 8003264:	4291      	cmp	r1, r2
 8003266:	f63f af70 	bhi.w	800314a <UART_SetConfig+0xaa>
 800326a:	f020 000f 	bic.w	r0, r0, #15
 800326e:	6822      	ldr	r2, [r4, #0]
 8003270:	b280      	uxth	r0, r0
 8003272:	f3c3 0342 	ubfx	r3, r3, #1, #3
 8003276:	4318      	orrs	r0, r3
 8003278:	60d0      	str	r0, [r2, #12]
 800327a:	e771      	b.n	8003160 <UART_SetConfig+0xc0>
 800327c:	cfff69f3 	.word	0xcfff69f3
 8003280:	40008000 	.word	0x40008000
 8003284:	40013800 	.word	0x40013800
 8003288:	08008a50 	.word	0x08008a50
 800328c:	00f42400 	.word	0x00f42400
 8003290:	08008a54 	.word	0x08008a54
 8003294:	000ffcff 	.word	0x000ffcff

08003298 <UART_AdvFeatureConfig>:
 8003298:	6a83      	ldr	r3, [r0, #40]	; 0x28
 800329a:	07da      	lsls	r2, r3, #31
 800329c:	b510      	push	{r4, lr}
 800329e:	d506      	bpl.n	80032ae <UART_AdvFeatureConfig+0x16>
 80032a0:	6801      	ldr	r1, [r0, #0]
 80032a2:	6ac4      	ldr	r4, [r0, #44]	; 0x2c
 80032a4:	684a      	ldr	r2, [r1, #4]
 80032a6:	f422 3200 	bic.w	r2, r2, #131072	; 0x20000
 80032aa:	4322      	orrs	r2, r4
 80032ac:	604a      	str	r2, [r1, #4]
 80032ae:	079c      	lsls	r4, r3, #30
 80032b0:	d506      	bpl.n	80032c0 <UART_AdvFeatureConfig+0x28>
 80032b2:	6801      	ldr	r1, [r0, #0]
 80032b4:	6b04      	ldr	r4, [r0, #48]	; 0x30
 80032b6:	684a      	ldr	r2, [r1, #4]
 80032b8:	f422 3280 	bic.w	r2, r2, #65536	; 0x10000
 80032bc:	4322      	orrs	r2, r4
 80032be:	604a      	str	r2, [r1, #4]
 80032c0:	0759      	lsls	r1, r3, #29
 80032c2:	d506      	bpl.n	80032d2 <UART_AdvFeatureConfig+0x3a>
 80032c4:	6801      	ldr	r1, [r0, #0]
 80032c6:	6b44      	ldr	r4, [r0, #52]	; 0x34
 80032c8:	684a      	ldr	r2, [r1, #4]
 80032ca:	f422 2280 	bic.w	r2, r2, #262144	; 0x40000
 80032ce:	4322      	orrs	r2, r4
 80032d0:	604a      	str	r2, [r1, #4]
 80032d2:	071a      	lsls	r2, r3, #28
 80032d4:	d506      	bpl.n	80032e4 <UART_AdvFeatureConfig+0x4c>
 80032d6:	6801      	ldr	r1, [r0, #0]
 80032d8:	6b84      	ldr	r4, [r0, #56]	; 0x38
 80032da:	684a      	ldr	r2, [r1, #4]
 80032dc:	f422 4200 	bic.w	r2, r2, #32768	; 0x8000
 80032e0:	4322      	orrs	r2, r4
 80032e2:	604a      	str	r2, [r1, #4]
 80032e4:	06dc      	lsls	r4, r3, #27
 80032e6:	d506      	bpl.n	80032f6 <UART_AdvFeatureConfig+0x5e>
 80032e8:	6801      	ldr	r1, [r0, #0]
 80032ea:	6bc4      	ldr	r4, [r0, #60]	; 0x3c
 80032ec:	688a      	ldr	r2, [r1, #8]
 80032ee:	f422 5280 	bic.w	r2, r2, #4096	; 0x1000
 80032f2:	4322      	orrs	r2, r4
 80032f4:	608a      	str	r2, [r1, #8]
 80032f6:	0699      	lsls	r1, r3, #26
 80032f8:	d506      	bpl.n	8003308 <UART_AdvFeatureConfig+0x70>
 80032fa:	6801      	ldr	r1, [r0, #0]
 80032fc:	6c04      	ldr	r4, [r0, #64]	; 0x40
 80032fe:	688a      	ldr	r2, [r1, #8]
 8003300:	f422 5200 	bic.w	r2, r2, #8192	; 0x2000
 8003304:	4322      	orrs	r2, r4
 8003306:	608a      	str	r2, [r1, #8]
 8003308:	065a      	lsls	r2, r3, #25
 800330a:	d50f      	bpl.n	800332c <UART_AdvFeatureConfig+0x94>
 800330c:	6801      	ldr	r1, [r0, #0]
 800330e:	6c44      	ldr	r4, [r0, #68]	; 0x44
 8003310:	684a      	ldr	r2, [r1, #4]
 8003312:	f422 1280 	bic.w	r2, r2, #1048576	; 0x100000
 8003316:	4322      	orrs	r2, r4
 8003318:	f5b4 1f80 	cmp.w	r4, #1048576	; 0x100000
 800331c:	604a      	str	r2, [r1, #4]
 800331e:	d105      	bne.n	800332c <UART_AdvFeatureConfig+0x94>
 8003320:	684a      	ldr	r2, [r1, #4]
 8003322:	6c84      	ldr	r4, [r0, #72]	; 0x48
 8003324:	f422 02c0 	bic.w	r2, r2, #6291456	; 0x600000
 8003328:	4322      	orrs	r2, r4
 800332a:	604a      	str	r2, [r1, #4]
 800332c:	061b      	lsls	r3, r3, #24
 800332e:	d506      	bpl.n	800333e <UART_AdvFeatureConfig+0xa6>
 8003330:	6802      	ldr	r2, [r0, #0]
 8003332:	6cc1      	ldr	r1, [r0, #76]	; 0x4c
 8003334:	6853      	ldr	r3, [r2, #4]
 8003336:	f423 2300 	bic.w	r3, r3, #524288	; 0x80000
 800333a:	430b      	orrs	r3, r1
 800333c:	6053      	str	r3, [r2, #4]
 800333e:	bd10      	pop	{r4, pc}

08003340 <UART_WaitOnFlagUntilTimeout>:
 8003340:	e92d 41f0 	stmdb	sp!, {r4, r5, r6, r7, r8, lr}
 8003344:	f8dd 8018 	ldr.w	r8, [sp, #24]
 8003348:	4604      	mov	r4, r0
 800334a:	460e      	mov	r6, r1
 800334c:	4615      	mov	r5, r2
 800334e:	461f      	mov	r7, r3
 8003350:	6822      	ldr	r2, [r4, #0]
 8003352:	69d3      	ldr	r3, [r2, #28]
 8003354:	ea36 0303 	bics.w	r3, r6, r3
 8003358:	bf0c      	ite	eq
 800335a:	2301      	moveq	r3, #1
 800335c:	2300      	movne	r3, #0
 800335e:	42ab      	cmp	r3, r5
 8003360:	d001      	beq.n	8003366 <UART_WaitOnFlagUntilTimeout+0x26>
 8003362:	2000      	movs	r0, #0
 8003364:	e027      	b.n	80033b6 <UART_WaitOnFlagUntilTimeout+0x76>
 8003366:	f1b8 3fff 	cmp.w	r8, #4294967295
 800336a:	d0f2      	beq.n	8003352 <UART_WaitOnFlagUntilTimeout+0x12>
 800336c:	f7fe fa58 	bl	8001820 <HAL_GetTick>
 8003370:	1bc0      	subs	r0, r0, r7
 8003372:	4540      	cmp	r0, r8
 8003374:	6820      	ldr	r0, [r4, #0]
 8003376:	d802      	bhi.n	800337e <UART_WaitOnFlagUntilTimeout+0x3e>
 8003378:	f1b8 0f00 	cmp.w	r8, #0
 800337c:	d11d      	bne.n	80033ba <UART_WaitOnFlagUntilTimeout+0x7a>
 800337e:	e850 3f00 	ldrex	r3, [r0]
 8003382:	f423 73d0 	bic.w	r3, r3, #416	; 0x1a0
 8003386:	e840 3200 	strex	r2, r3, [r0]
 800338a:	2a00      	cmp	r2, #0
 800338c:	d1f7      	bne.n	800337e <UART_WaitOnFlagUntilTimeout+0x3e>
 800338e:	f100 0308 	add.w	r3, r0, #8
 8003392:	e853 3f00 	ldrex	r3, [r3]
 8003396:	f023 0301 	bic.w	r3, r3, #1
 800339a:	f100 0108 	add.w	r1, r0, #8
 800339e:	e841 3200 	strex	r2, r3, [r1]
 80033a2:	2a00      	cmp	r2, #0
 80033a4:	d1f3      	bne.n	800338e <UART_WaitOnFlagUntilTimeout+0x4e>
 80033a6:	2320      	movs	r3, #32
 80033a8:	f8c4 3084 	str.w	r3, [r4, #132]	; 0x84
 80033ac:	f8c4 3088 	str.w	r3, [r4, #136]	; 0x88
 80033b0:	f884 2080 	strb.w	r2, [r4, #128]	; 0x80
 80033b4:	2003      	movs	r0, #3
 80033b6:	e8bd 81f0 	ldmia.w	sp!, {r4, r5, r6, r7, r8, pc}
 80033ba:	6803      	ldr	r3, [r0, #0]
 80033bc:	075a      	lsls	r2, r3, #29
 80033be:	d5c7      	bpl.n	8003350 <UART_WaitOnFlagUntilTimeout+0x10>
 80033c0:	69c3      	ldr	r3, [r0, #28]
 80033c2:	051b      	lsls	r3, r3, #20
 80033c4:	d5c4      	bpl.n	8003350 <UART_WaitOnFlagUntilTimeout+0x10>
 80033c6:	f44f 6300 	mov.w	r3, #2048	; 0x800
 80033ca:	6203      	str	r3, [r0, #32]
 80033cc:	e850 3f00 	ldrex	r3, [r0]
 80033d0:	f423 73d0 	bic.w	r3, r3, #416	; 0x1a0
 80033d4:	e840 3200 	strex	r2, r3, [r0]
 80033d8:	2a00      	cmp	r2, #0
 80033da:	d1f7      	bne.n	80033cc <UART_WaitOnFlagUntilTimeout+0x8c>
 80033dc:	f100 0308 	add.w	r3, r0, #8
 80033e0:	e853 3f00 	ldrex	r3, [r3]
 80033e4:	f023 0301 	bic.w	r3, r3, #1
 80033e8:	f100 0108 	add.w	r1, r0, #8
 80033ec:	e841 3200 	strex	r2, r3, [r1]
 80033f0:	2a00      	cmp	r2, #0
 80033f2:	d1f3      	bne.n	80033dc <UART_WaitOnFlagUntilTimeout+0x9c>
 80033f4:	2320      	movs	r3, #32
 80033f6:	f8c4 3084 	str.w	r3, [r4, #132]	; 0x84
 80033fa:	f8c4 3088 	str.w	r3, [r4, #136]	; 0x88
 80033fe:	f8c4 308c 	str.w	r3, [r4, #140]	; 0x8c
 8003402:	e7d5      	b.n	80033b0 <UART_WaitOnFlagUntilTimeout+0x70>

08003404 <HAL_UART_Transmit>:
 8003404:	e92d 41ff 	stmdb	sp!, {r0, r1, r2, r3, r4, r5, r6, r7, r8, lr}
 8003408:	4698      	mov	r8, r3
 800340a:	f8d0 3084 	ldr.w	r3, [r0, #132]	; 0x84
 800340e:	2b20      	cmp	r3, #32
 8003410:	4604      	mov	r4, r0
 8003412:	460e      	mov	r6, r1
 8003414:	4617      	mov	r7, r2
 8003416:	d150      	bne.n	80034ba <HAL_UART_Transmit+0xb6>
 8003418:	2900      	cmp	r1, #0
 800341a:	d04c      	beq.n	80034b6 <HAL_UART_Transmit+0xb2>
 800341c:	2a00      	cmp	r2, #0
 800341e:	d04a      	beq.n	80034b6 <HAL_UART_Transmit+0xb2>
 8003420:	f890 3080 	ldrb.w	r3, [r0, #128]	; 0x80
 8003424:	2b01      	cmp	r3, #1
 8003426:	d048      	beq.n	80034ba <HAL_UART_Transmit+0xb6>
 8003428:	2301      	movs	r3, #1
 800342a:	f880 3080 	strb.w	r3, [r0, #128]	; 0x80
 800342e:	2500      	movs	r5, #0
 8003430:	2321      	movs	r3, #33	; 0x21
 8003432:	f8c0 508c 	str.w	r5, [r0, #140]	; 0x8c
 8003436:	f8c0 3084 	str.w	r3, [r0, #132]	; 0x84
 800343a:	f7fe f9f1 	bl	8001820 <HAL_GetTick>
 800343e:	68a2      	ldr	r2, [r4, #8]
 8003440:	f8a4 7054 	strh.w	r7, [r4, #84]	; 0x54
 8003444:	f5b2 5f80 	cmp.w	r2, #4096	; 0x1000
 8003448:	4603      	mov	r3, r0
 800344a:	f8a4 7056 	strh.w	r7, [r4, #86]	; 0x56
 800344e:	d103      	bne.n	8003458 <HAL_UART_Transmit+0x54>
 8003450:	6922      	ldr	r2, [r4, #16]
 8003452:	b90a      	cbnz	r2, 8003458 <HAL_UART_Transmit+0x54>
 8003454:	4635      	mov	r5, r6
 8003456:	4616      	mov	r6, r2
 8003458:	2200      	movs	r2, #0
 800345a:	f884 2080 	strb.w	r2, [r4, #128]	; 0x80
 800345e:	f8b4 2056 	ldrh.w	r2, [r4, #86]	; 0x56
 8003462:	f8cd 8000 	str.w	r8, [sp]
 8003466:	b292      	uxth	r2, r2
 8003468:	b942      	cbnz	r2, 800347c <HAL_UART_Transmit+0x78>
 800346a:	2140      	movs	r1, #64	; 0x40
 800346c:	4620      	mov	r0, r4
 800346e:	f7ff ff67 	bl	8003340 <UART_WaitOnFlagUntilTimeout>
 8003472:	b958      	cbnz	r0, 800348c <HAL_UART_Transmit+0x88>
 8003474:	2320      	movs	r3, #32
 8003476:	f8c4 3084 	str.w	r3, [r4, #132]	; 0x84
 800347a:	e008      	b.n	800348e <HAL_UART_Transmit+0x8a>
 800347c:	2200      	movs	r2, #0
 800347e:	2180      	movs	r1, #128	; 0x80
 8003480:	4620      	mov	r0, r4
 8003482:	9303      	str	r3, [sp, #12]
 8003484:	f7ff ff5c 	bl	8003340 <UART_WaitOnFlagUntilTimeout>
 8003488:	9b03      	ldr	r3, [sp, #12]
 800348a:	b118      	cbz	r0, 8003494 <HAL_UART_Transmit+0x90>
 800348c:	2003      	movs	r0, #3
 800348e:	b004      	add	sp, #16
 8003490:	e8bd 81f0 	ldmia.w	sp!, {r4, r5, r6, r7, r8, pc}
 8003494:	6821      	ldr	r1, [r4, #0]
 8003496:	b95e      	cbnz	r6, 80034b0 <HAL_UART_Transmit+0xac>
 8003498:	f835 2b02 	ldrh.w	r2, [r5], #2
 800349c:	f3c2 0208 	ubfx	r2, r2, #0, #9
 80034a0:	628a      	str	r2, [r1, #40]	; 0x28
 80034a2:	f8b4 2056 	ldrh.w	r2, [r4, #86]	; 0x56
 80034a6:	3a01      	subs	r2, #1
 80034a8:	b292      	uxth	r2, r2
 80034aa:	f8a4 2056 	strh.w	r2, [r4, #86]	; 0x56
 80034ae:	e7d6      	b.n	800345e <HAL_UART_Transmit+0x5a>
 80034b0:	f816 2b01 	ldrb.w	r2, [r6], #1
 80034b4:	e7f4      	b.n	80034a0 <HAL_UART_Transmit+0x9c>
 80034b6:	2001      	movs	r0, #1
 80034b8:	e7e9      	b.n	800348e <HAL_UART_Transmit+0x8a>
 80034ba:	2002      	movs	r0, #2
 80034bc:	e7e7      	b.n	800348e <HAL_UART_Transmit+0x8a>

080034be <UART_CheckIdleState>:
 80034be:	b530      	push	{r4, r5, lr}
 80034c0:	4604      	mov	r4, r0
 80034c2:	2500      	movs	r5, #0
 80034c4:	b085      	sub	sp, #20
 80034c6:	f8c0 508c 	str.w	r5, [r0, #140]	; 0x8c
 80034ca:	f7fe f9a9 	bl	8001820 <HAL_GetTick>
 80034ce:	6822      	ldr	r2, [r4, #0]
 80034d0:	6812      	ldr	r2, [r2, #0]
 80034d2:	0711      	lsls	r1, r2, #28
 80034d4:	4603      	mov	r3, r0
 80034d6:	d417      	bmi.n	8003508 <UART_CheckIdleState+0x4a>
 80034d8:	6822      	ldr	r2, [r4, #0]
 80034da:	6812      	ldr	r2, [r2, #0]
 80034dc:	0752      	lsls	r2, r2, #29
 80034de:	d509      	bpl.n	80034f4 <UART_CheckIdleState+0x36>
 80034e0:	f06f 427e 	mvn.w	r2, #4261412864	; 0xfe000000
 80034e4:	9200      	str	r2, [sp, #0]
 80034e6:	f44f 0180 	mov.w	r1, #4194304	; 0x400000
 80034ea:	2200      	movs	r2, #0
 80034ec:	4620      	mov	r0, r4
 80034ee:	f7ff ff27 	bl	8003340 <UART_WaitOnFlagUntilTimeout>
 80034f2:	b9b0      	cbnz	r0, 8003522 <UART_CheckIdleState+0x64>
 80034f4:	2320      	movs	r3, #32
 80034f6:	2000      	movs	r0, #0
 80034f8:	f8c4 3084 	str.w	r3, [r4, #132]	; 0x84
 80034fc:	f884 0080 	strb.w	r0, [r4, #128]	; 0x80
 8003500:	f8c4 3088 	str.w	r3, [r4, #136]	; 0x88
 8003504:	66e0      	str	r0, [r4, #108]	; 0x6c
 8003506:	e00d      	b.n	8003524 <UART_CheckIdleState+0x66>
 8003508:	f06f 427e 	mvn.w	r2, #4261412864	; 0xfe000000
 800350c:	9200      	str	r2, [sp, #0]
 800350e:	9003      	str	r0, [sp, #12]
 8003510:	462a      	mov	r2, r5
 8003512:	f44f 1100 	mov.w	r1, #2097152	; 0x200000
 8003516:	4620      	mov	r0, r4
 8003518:	f7ff ff12 	bl	8003340 <UART_WaitOnFlagUntilTimeout>
 800351c:	9b03      	ldr	r3, [sp, #12]
 800351e:	2800      	cmp	r0, #0
 8003520:	d0da      	beq.n	80034d8 <UART_CheckIdleState+0x1a>
 8003522:	2003      	movs	r0, #3
 8003524:	b005      	add	sp, #20
 8003526:	bd30      	pop	{r4, r5, pc}

08003528 <HAL_UART_Init>:
 8003528:	b510      	push	{r4, lr}
 800352a:	4604      	mov	r4, r0
 800352c:	b350      	cbz	r0, 8003584 <HAL_UART_Init+0x5c>
 800352e:	f8d0 3084 	ldr.w	r3, [r0, #132]	; 0x84
 8003532:	b91b      	cbnz	r3, 800353c <HAL_UART_Init+0x14>
 8003534:	f880 3080 	strb.w	r3, [r0, #128]	; 0x80
 8003538:	f7fe f84e 	bl	80015d8 <HAL_UART_MspInit>
 800353c:	6822      	ldr	r2, [r4, #0]
 800353e:	2324      	movs	r3, #36	; 0x24
 8003540:	f8c4 3084 	str.w	r3, [r4, #132]	; 0x84
 8003544:	6813      	ldr	r3, [r2, #0]
 8003546:	f023 0301 	bic.w	r3, r3, #1
 800354a:	6013      	str	r3, [r2, #0]
 800354c:	4620      	mov	r0, r4
 800354e:	f7ff fda7 	bl	80030a0 <UART_SetConfig>
 8003552:	2801      	cmp	r0, #1
 8003554:	d016      	beq.n	8003584 <HAL_UART_Init+0x5c>
 8003556:	6aa3      	ldr	r3, [r4, #40]	; 0x28
 8003558:	b113      	cbz	r3, 8003560 <HAL_UART_Init+0x38>
 800355a:	4620      	mov	r0, r4
 800355c:	f7ff fe9c 	bl	8003298 <UART_AdvFeatureConfig>
 8003560:	6823      	ldr	r3, [r4, #0]
 8003562:	685a      	ldr	r2, [r3, #4]
 8003564:	f422 4290 	bic.w	r2, r2, #18432	; 0x4800
 8003568:	605a      	str	r2, [r3, #4]
 800356a:	689a      	ldr	r2, [r3, #8]
 800356c:	f022 022a 	bic.w	r2, r2, #42	; 0x2a
 8003570:	609a      	str	r2, [r3, #8]
 8003572:	681a      	ldr	r2, [r3, #0]
 8003574:	f042 0201 	orr.w	r2, r2, #1
 8003578:	4620      	mov	r0, r4
 800357a:	601a      	str	r2, [r3, #0]
 800357c:	e8bd 4010 	ldmia.w	sp!, {r4, lr}
 8003580:	f7ff bf9d 	b.w	80034be <UART_CheckIdleState>
 8003584:	2001      	movs	r0, #1
 8003586:	bd10      	pop	{r4, pc}

08003588 <UARTEx_SetNbDataToProcess>:
 8003588:	6e43      	ldr	r3, [r0, #100]	; 0x64
 800358a:	b530      	push	{r4, r5, lr}
 800358c:	b91b      	cbnz	r3, 8003596 <UARTEx_SetNbDataToProcess+0xe>
 800358e:	f04f 1301 	mov.w	r3, #65537	; 0x10001
 8003592:	6683      	str	r3, [r0, #104]	; 0x68
 8003594:	bd30      	pop	{r4, r5, pc}
 8003596:	6803      	ldr	r3, [r0, #0]
 8003598:	4d0a      	ldr	r5, [pc, #40]	; (80035c4 <UARTEx_SetNbDataToProcess+0x3c>)
 800359a:	689a      	ldr	r2, [r3, #8]
 800359c:	6899      	ldr	r1, [r3, #8]
 800359e:	4c0a      	ldr	r4, [pc, #40]	; (80035c8 <UARTEx_SetNbDataToProcess+0x40>)
 80035a0:	0f49      	lsrs	r1, r1, #29
 80035a2:	f3c2 6242 	ubfx	r2, r2, #25, #3
 80035a6:	5c6b      	ldrb	r3, [r5, r1]
 80035a8:	5c61      	ldrb	r1, [r4, r1]
 80035aa:	00db      	lsls	r3, r3, #3
 80035ac:	fbb3 f3f1 	udiv	r3, r3, r1
 80035b0:	f8a0 306a 	strh.w	r3, [r0, #106]	; 0x6a
 80035b4:	5cab      	ldrb	r3, [r5, r2]
 80035b6:	5ca2      	ldrb	r2, [r4, r2]
 80035b8:	00db      	lsls	r3, r3, #3
 80035ba:	fbb3 f3f2 	udiv	r3, r3, r2
 80035be:	f8a0 3068 	strh.w	r3, [r0, #104]	; 0x68
 80035c2:	e7e7      	b.n	8003594 <UARTEx_SetNbDataToProcess+0xc>
 80035c4:	08008a74 	.word	0x08008a74
 80035c8:	08008a6c 	.word	0x08008a6c

080035cc <HAL_UARTEx_DisableFifoMode>:
 80035cc:	f890 3080 	ldrb.w	r3, [r0, #128]	; 0x80
 80035d0:	2b01      	cmp	r3, #1
 80035d2:	d014      	beq.n	80035fe <HAL_UARTEx_DisableFifoMode+0x32>
 80035d4:	6802      	ldr	r2, [r0, #0]
 80035d6:	2324      	movs	r3, #36	; 0x24
 80035d8:	f8c0 3084 	str.w	r3, [r0, #132]	; 0x84
 80035dc:	6811      	ldr	r1, [r2, #0]
 80035de:	6813      	ldr	r3, [r2, #0]
 80035e0:	f023 0301 	bic.w	r3, r3, #1
 80035e4:	6013      	str	r3, [r2, #0]
 80035e6:	f021 5100 	bic.w	r1, r1, #536870912	; 0x20000000
 80035ea:	2300      	movs	r3, #0
 80035ec:	6643      	str	r3, [r0, #100]	; 0x64
 80035ee:	6011      	str	r1, [r2, #0]
 80035f0:	2220      	movs	r2, #32
 80035f2:	f8c0 2084 	str.w	r2, [r0, #132]	; 0x84
 80035f6:	f880 3080 	strb.w	r3, [r0, #128]	; 0x80
 80035fa:	4618      	mov	r0, r3
 80035fc:	4770      	bx	lr
 80035fe:	2002      	movs	r0, #2
 8003600:	4770      	bx	lr

08003602 <HAL_UARTEx_SetTxFifoThreshold>:
 8003602:	b538      	push	{r3, r4, r5, lr}
 8003604:	f890 3080 	ldrb.w	r3, [r0, #128]	; 0x80
 8003608:	2b01      	cmp	r3, #1
 800360a:	4604      	mov	r4, r0
 800360c:	d01b      	beq.n	8003646 <HAL_UARTEx_SetTxFifoThreshold+0x44>
 800360e:	2301      	movs	r3, #1
 8003610:	f880 3080 	strb.w	r3, [r0, #128]	; 0x80
 8003614:	2324      	movs	r3, #36	; 0x24
 8003616:	f8c0 3084 	str.w	r3, [r0, #132]	; 0x84
 800361a:	6803      	ldr	r3, [r0, #0]
 800361c:	681d      	ldr	r5, [r3, #0]
 800361e:	681a      	ldr	r2, [r3, #0]
 8003620:	f022 0201 	bic.w	r2, r2, #1
 8003624:	601a      	str	r2, [r3, #0]
 8003626:	689a      	ldr	r2, [r3, #8]
 8003628:	f022 4260 	bic.w	r2, r2, #3758096384	; 0xe0000000
 800362c:	4311      	orrs	r1, r2
 800362e:	6099      	str	r1, [r3, #8]
 8003630:	f7ff ffaa 	bl	8003588 <UARTEx_SetNbDataToProcess>
 8003634:	6803      	ldr	r3, [r0, #0]
 8003636:	601d      	str	r5, [r3, #0]
 8003638:	2320      	movs	r3, #32
 800363a:	f8c0 3084 	str.w	r3, [r0, #132]	; 0x84
 800363e:	2000      	movs	r0, #0
 8003640:	f884 0080 	strb.w	r0, [r4, #128]	; 0x80
 8003644:	bd38      	pop	{r3, r4, r5, pc}
 8003646:	2002      	movs	r0, #2
 8003648:	e7fc      	b.n	8003644 <HAL_UARTEx_SetTxFifoThreshold+0x42>

0800364a <HAL_UARTEx_SetRxFifoThreshold>:
 800364a:	b538      	push	{r3, r4, r5, lr}
 800364c:	f890 3080 	ldrb.w	r3, [r0, #128]	; 0x80
 8003650:	2b01      	cmp	r3, #1
 8003652:	4604      	mov	r4, r0
 8003654:	d01b      	beq.n	800368e <HAL_UARTEx_SetRxFifoThreshold+0x44>
 8003656:	2301      	movs	r3, #1
 8003658:	f880 3080 	strb.w	r3, [r0, #128]	; 0x80
 800365c:	2324      	movs	r3, #36	; 0x24
 800365e:	f8c0 3084 	str.w	r3, [r0, #132]	; 0x84
 8003662:	6803      	ldr	r3, [r0, #0]
 8003664:	681d      	ldr	r5, [r3, #0]
 8003666:	681a      	ldr	r2, [r3, #0]
 8003668:	f022 0201 	bic.w	r2, r2, #1
 800366c:	601a      	str	r2, [r3, #0]
 800366e:	689a      	ldr	r2, [r3, #8]
 8003670:	f022 6260 	bic.w	r2, r2, #234881024	; 0xe000000
 8003674:	4311      	orrs	r1, r2
 8003676:	6099      	str	r1, [r3, #8]
 8003678:	f7ff ff86 	bl	8003588 <UARTEx_SetNbDataToProcess>
 800367c:	6803      	ldr	r3, [r0, #0]
 800367e:	601d      	str	r5, [r3, #0]
 8003680:	2320      	movs	r3, #32
 8003682:	f8c0 3084 	str.w	r3, [r0, #132]	; 0x84
 8003686:	2000      	movs	r0, #0
 8003688:	f884 0080 	strb.w	r0, [r4, #128]	; 0x80
 800368c:	bd38      	pop	{r3, r4, r5, pc}
 800368e:	2002      	movs	r0, #2
 8003690:	e7fc      	b.n	800368c <HAL_UARTEx_SetRxFifoThreshold+0x42>
	...

08003694 <aci_gap_set_non_discoverable>:
 8003694:	b510      	push	{r4, lr}
 8003696:	2400      	movs	r4, #0
 8003698:	b088      	sub	sp, #32
 800369a:	2218      	movs	r2, #24
 800369c:	4621      	mov	r1, r4
 800369e:	a802      	add	r0, sp, #8
 80036a0:	f88d 4007 	strb.w	r4, [sp, #7]
 80036a4:	f000 fb60 	bl	8003d68 <Osal_MemSet>
 80036a8:	4b08      	ldr	r3, [pc, #32]	; (80036cc <aci_gap_set_non_discoverable+0x38>)
 80036aa:	9302      	str	r3, [sp, #8]
 80036ac:	f10d 0307 	add.w	r3, sp, #7
 80036b0:	9306      	str	r3, [sp, #24]
 80036b2:	4621      	mov	r1, r4
 80036b4:	2301      	movs	r3, #1
 80036b6:	a802      	add	r0, sp, #8
 80036b8:	9307      	str	r3, [sp, #28]
 80036ba:	f000 fc91 	bl	8003fe0 <hci_send_req>
 80036be:	42a0      	cmp	r0, r4
 80036c0:	bfac      	ite	ge
 80036c2:	f89d 0007 	ldrbge.w	r0, [sp, #7]
 80036c6:	20ff      	movlt	r0, #255	; 0xff
 80036c8:	b008      	add	sp, #32
 80036ca:	bd10      	pop	{r4, pc}
 80036cc:	0081003f 	.word	0x0081003f

080036d0 <aci_gap_set_discoverable>:
 80036d0:	e92d 4ff0 	stmdb	sp!, {r4, r5, r6, r7, r8, r9, sl, fp, lr}
 80036d4:	b0cb      	sub	sp, #300	; 0x12c
 80036d6:	469c      	mov	ip, r3
 80036d8:	f89d 6154 	ldrb.w	r6, [sp, #340]	; 0x154
 80036dc:	f89d 515c 	ldrb.w	r5, [sp, #348]	; 0x15c
 80036e0:	f8ad 202b 	strh.w	r2, [sp, #43]	; 0x2b
 80036e4:	f89d 2150 	ldrb.w	r2, [sp, #336]	; 0x150
 80036e8:	f88d 0028 	strb.w	r0, [sp, #40]	; 0x28
 80036ec:	ac0a      	add	r4, sp, #40	; 0x28
 80036ee:	f106 0308 	add.w	r3, r6, #8
 80036f2:	f04f 0900 	mov.w	r9, #0
 80036f6:	f8ad 1029 	strh.w	r1, [sp, #41]	; 0x29
 80036fa:	f88d 202e 	strb.w	r2, [sp, #46]	; 0x2e
 80036fe:	9956      	ldr	r1, [sp, #344]	; 0x158
 8003700:	f88d c02d 	strb.w	ip, [sp, #45]	; 0x2d
 8003704:	4632      	mov	r2, r6
 8003706:	a80c      	add	r0, sp, #48	; 0x30
 8003708:	eb04 0b03 	add.w	fp, r4, r3
 800370c:	9301      	str	r3, [sp, #4]
 800370e:	f88d 602f 	strb.w	r6, [sp, #47]	; 0x2f
 8003712:	f105 0709 	add.w	r7, r5, #9
 8003716:	f88d 900f 	strb.w	r9, [sp, #15]
 800371a:	f000 fb23 	bl	8003d64 <Osal_MemCpy>
 800371e:	9b01      	ldr	r3, [sp, #4]
 8003720:	9958      	ldr	r1, [sp, #352]	; 0x160
 8003722:	54e5      	strb	r5, [r4, r3]
 8003724:	4437      	add	r7, r6
 8003726:	462a      	mov	r2, r5
 8003728:	f10b 0001 	add.w	r0, fp, #1
 800372c:	f000 fb1a 	bl	8003d64 <Osal_MemCpy>
 8003730:	eb04 0a07 	add.w	sl, r4, r7
 8003734:	f8bd 3164 	ldrh.w	r3, [sp, #356]	; 0x164
 8003738:	53e3      	strh	r3, [r4, r7]
 800373a:	f8bd 3168 	ldrh.w	r3, [sp, #360]	; 0x168
 800373e:	f8aa 3002 	strh.w	r3, [sl, #2]
 8003742:	2218      	movs	r2, #24
 8003744:	4649      	mov	r1, r9
 8003746:	3609      	adds	r6, #9
 8003748:	a804      	add	r0, sp, #16
 800374a:	f000 fb0d 	bl	8003d68 <Osal_MemSet>
 800374e:	4435      	add	r5, r6
 8003750:	4b0a      	ldr	r3, [pc, #40]	; (800377c <aci_gap_set_discoverable+0xac>)
 8003752:	9304      	str	r3, [sp, #16]
 8003754:	f10d 080f 	add.w	r8, sp, #15
 8003758:	2301      	movs	r3, #1
 800375a:	3504      	adds	r5, #4
 800375c:	4649      	mov	r1, r9
 800375e:	a804      	add	r0, sp, #16
 8003760:	e9cd 5807 	strd	r5, r8, [sp, #28]
 8003764:	9406      	str	r4, [sp, #24]
 8003766:	9309      	str	r3, [sp, #36]	; 0x24
 8003768:	f000 fc3a 	bl	8003fe0 <hci_send_req>
 800376c:	4548      	cmp	r0, r9
 800376e:	bfac      	ite	ge
 8003770:	f89d 000f 	ldrbge.w	r0, [sp, #15]
 8003774:	20ff      	movlt	r0, #255	; 0xff
 8003776:	b04b      	add	sp, #300	; 0x12c
 8003778:	e8bd 8ff0 	ldmia.w	sp!, {r4, r5, r6, r7, r8, r9, sl, fp, pc}
 800377c:	0083003f 	.word	0x0083003f

08003780 <aci_gap_set_io_capability>:
 8003780:	b570      	push	{r4, r5, r6, lr}
 8003782:	b0c8      	sub	sp, #288	; 0x120
 8003784:	2500      	movs	r5, #0
 8003786:	f88d 0020 	strb.w	r0, [sp, #32]
 800378a:	2218      	movs	r2, #24
 800378c:	4629      	mov	r1, r5
 800378e:	a802      	add	r0, sp, #8
 8003790:	f88d 5007 	strb.w	r5, [sp, #7]
 8003794:	f000 fae8 	bl	8003d68 <Osal_MemSet>
 8003798:	4b0a      	ldr	r3, [pc, #40]	; (80037c4 <aci_gap_set_io_capability+0x44>)
 800379a:	9302      	str	r3, [sp, #8]
 800379c:	f10d 0407 	add.w	r4, sp, #7
 80037a0:	2301      	movs	r3, #1
 80037a2:	ae08      	add	r6, sp, #32
 80037a4:	4629      	mov	r1, r5
 80037a6:	a802      	add	r0, sp, #8
 80037a8:	e9cd 3405 	strd	r3, r4, [sp, #20]
 80037ac:	9604      	str	r6, [sp, #16]
 80037ae:	9307      	str	r3, [sp, #28]
 80037b0:	f000 fc16 	bl	8003fe0 <hci_send_req>
 80037b4:	42a8      	cmp	r0, r5
 80037b6:	bfac      	ite	ge
 80037b8:	f89d 0007 	ldrbge.w	r0, [sp, #7]
 80037bc:	20ff      	movlt	r0, #255	; 0xff
 80037be:	b048      	add	sp, #288	; 0x120
 80037c0:	bd70      	pop	{r4, r5, r6, pc}
 80037c2:	bf00      	nop
 80037c4:	0085003f 	.word	0x0085003f

080037c8 <aci_gap_set_authentication_requirement>:
 80037c8:	b570      	push	{r4, r5, r6, lr}
 80037ca:	b0c8      	sub	sp, #288	; 0x120
 80037cc:	2600      	movs	r6, #0
 80037ce:	f88d 3023 	strb.w	r3, [sp, #35]	; 0x23
 80037d2:	f89d 3130 	ldrb.w	r3, [sp, #304]	; 0x130
 80037d6:	f88d 3024 	strb.w	r3, [sp, #36]	; 0x24
 80037da:	f89d 3134 	ldrb.w	r3, [sp, #308]	; 0x134
 80037de:	f88d 3025 	strb.w	r3, [sp, #37]	; 0x25
 80037e2:	f89d 3138 	ldrb.w	r3, [sp, #312]	; 0x138
 80037e6:	f88d 3026 	strb.w	r3, [sp, #38]	; 0x26
 80037ea:	9b4f      	ldr	r3, [sp, #316]	; 0x13c
 80037ec:	f88d 0020 	strb.w	r0, [sp, #32]
 80037f0:	f88d 1021 	strb.w	r1, [sp, #33]	; 0x21
 80037f4:	f88d 2022 	strb.w	r2, [sp, #34]	; 0x22
 80037f8:	f8cd 3027 	str.w	r3, [sp, #39]	; 0x27
 80037fc:	2218      	movs	r2, #24
 80037fe:	f89d 3140 	ldrb.w	r3, [sp, #320]	; 0x140
 8003802:	f88d 302b 	strb.w	r3, [sp, #43]	; 0x2b
 8003806:	4631      	mov	r1, r6
 8003808:	a802      	add	r0, sp, #8
 800380a:	f88d 6007 	strb.w	r6, [sp, #7]
 800380e:	f000 faab 	bl	8003d68 <Osal_MemSet>
 8003812:	4b0b      	ldr	r3, [pc, #44]	; (8003840 <aci_gap_set_authentication_requirement+0x78>)
 8003814:	9302      	str	r3, [sp, #8]
 8003816:	f10d 0507 	add.w	r5, sp, #7
 800381a:	230c      	movs	r3, #12
 800381c:	e9cd 3505 	strd	r3, r5, [sp, #20]
 8003820:	ac08      	add	r4, sp, #32
 8003822:	2301      	movs	r3, #1
 8003824:	4631      	mov	r1, r6
 8003826:	a802      	add	r0, sp, #8
 8003828:	9404      	str	r4, [sp, #16]
 800382a:	9307      	str	r3, [sp, #28]
 800382c:	f000 fbd8 	bl	8003fe0 <hci_send_req>
 8003830:	42b0      	cmp	r0, r6
 8003832:	bfac      	ite	ge
 8003834:	f89d 0007 	ldrbge.w	r0, [sp, #7]
 8003838:	20ff      	movlt	r0, #255	; 0xff
 800383a:	b048      	add	sp, #288	; 0x120
 800383c:	bd70      	pop	{r4, r5, r6, pc}
 800383e:	bf00      	nop
 8003840:	0086003f 	.word	0x0086003f

08003844 <aci_gap_pass_key_resp>:
 8003844:	b570      	push	{r4, r5, r6, lr}
 8003846:	b0c8      	sub	sp, #288	; 0x120
 8003848:	2500      	movs	r5, #0
 800384a:	f8ad 0020 	strh.w	r0, [sp, #32]
 800384e:	f8cd 1022 	str.w	r1, [sp, #34]	; 0x22
 8003852:	2218      	movs	r2, #24
 8003854:	4629      	mov	r1, r5
 8003856:	a802      	add	r0, sp, #8
 8003858:	f88d 5007 	strb.w	r5, [sp, #7]
 800385c:	f000 fa84 	bl	8003d68 <Osal_MemSet>
 8003860:	4b0a      	ldr	r3, [pc, #40]	; (800388c <aci_gap_pass_key_resp+0x48>)
 8003862:	9302      	str	r3, [sp, #8]
 8003864:	f10d 0407 	add.w	r4, sp, #7
 8003868:	2306      	movs	r3, #6
 800386a:	e9cd 3405 	strd	r3, r4, [sp, #20]
 800386e:	ae08      	add	r6, sp, #32
 8003870:	2301      	movs	r3, #1
 8003872:	4629      	mov	r1, r5
 8003874:	a802      	add	r0, sp, #8
 8003876:	9604      	str	r6, [sp, #16]
 8003878:	9307      	str	r3, [sp, #28]
 800387a:	f000 fbb1 	bl	8003fe0 <hci_send_req>
 800387e:	42a8      	cmp	r0, r5
 8003880:	bfac      	ite	ge
 8003882:	f89d 0007 	ldrbge.w	r0, [sp, #7]
 8003886:	20ff      	movlt	r0, #255	; 0xff
 8003888:	b048      	add	sp, #288	; 0x120
 800388a:	bd70      	pop	{r4, r5, r6, pc}
 800388c:	0088003f 	.word	0x0088003f

08003890 <aci_gap_init>:
 8003890:	e92d 41f0 	stmdb	sp!, {r4, r5, r6, r7, r8, lr}
 8003894:	b0c8      	sub	sp, #288	; 0x120
 8003896:	4680      	mov	r8, r0
 8003898:	460f      	mov	r7, r1
 800389a:	4616      	mov	r6, r2
 800389c:	2100      	movs	r1, #0
 800389e:	2207      	movs	r2, #7
 80038a0:	4668      	mov	r0, sp
 80038a2:	461d      	mov	r5, r3
 80038a4:	f000 fa60 	bl	8003d68 <Osal_MemSet>
 80038a8:	2218      	movs	r2, #24
 80038aa:	2100      	movs	r1, #0
 80038ac:	a802      	add	r0, sp, #8
 80038ae:	f88d 8020 	strb.w	r8, [sp, #32]
 80038b2:	f88d 7021 	strb.w	r7, [sp, #33]	; 0x21
 80038b6:	f88d 6022 	strb.w	r6, [sp, #34]	; 0x22
 80038ba:	f000 fa55 	bl	8003d68 <Osal_MemSet>
 80038be:	4b14      	ldr	r3, [pc, #80]	; (8003910 <aci_gap_init+0x80>)
 80038c0:	9302      	str	r3, [sp, #8]
 80038c2:	2303      	movs	r3, #3
 80038c4:	9305      	str	r3, [sp, #20]
 80038c6:	ac08      	add	r4, sp, #32
 80038c8:	2307      	movs	r3, #7
 80038ca:	2100      	movs	r1, #0
 80038cc:	a802      	add	r0, sp, #8
 80038ce:	9404      	str	r4, [sp, #16]
 80038d0:	f8cd d018 	str.w	sp, [sp, #24]
 80038d4:	9307      	str	r3, [sp, #28]
 80038d6:	f000 fb83 	bl	8003fe0 <hci_send_req>
 80038da:	2800      	cmp	r0, #0
 80038dc:	db16      	blt.n	800390c <aci_gap_init+0x7c>
 80038de:	f89d 0000 	ldrb.w	r0, [sp]
 80038e2:	b980      	cbnz	r0, 8003906 <aci_gap_init+0x76>
 80038e4:	9b00      	ldr	r3, [sp, #0]
 80038e6:	f89d 2004 	ldrb.w	r2, [sp, #4]
 80038ea:	f3c3 230f 	ubfx	r3, r3, #8, #16
 80038ee:	802b      	strh	r3, [r5, #0]
 80038f0:	f89d 3003 	ldrb.w	r3, [sp, #3]
 80038f4:	ea43 2302 	orr.w	r3, r3, r2, lsl #8
 80038f8:	9a4e      	ldr	r2, [sp, #312]	; 0x138
 80038fa:	8013      	strh	r3, [r2, #0]
 80038fc:	9b01      	ldr	r3, [sp, #4]
 80038fe:	9a4f      	ldr	r2, [sp, #316]	; 0x13c
 8003900:	f3c3 230f 	ubfx	r3, r3, #8, #16
 8003904:	8013      	strh	r3, [r2, #0]
 8003906:	b048      	add	sp, #288	; 0x120
 8003908:	e8bd 81f0 	ldmia.w	sp!, {r4, r5, r6, r7, r8, pc}
 800390c:	20ff      	movs	r0, #255	; 0xff
 800390e:	e7fa      	b.n	8003906 <aci_gap_init+0x76>
 8003910:	008a003f 	.word	0x008a003f

08003914 <aci_gap_update_adv_data>:
 8003914:	b5f0      	push	{r4, r5, r6, r7, lr}
 8003916:	b0c9      	sub	sp, #292	; 0x124
 8003918:	2600      	movs	r6, #0
 800391a:	f88d 0020 	strb.w	r0, [sp, #32]
 800391e:	4602      	mov	r2, r0
 8003920:	4604      	mov	r4, r0
 8003922:	f10d 0021 	add.w	r0, sp, #33	; 0x21
 8003926:	f88d 6007 	strb.w	r6, [sp, #7]
 800392a:	f000 fa1b 	bl	8003d64 <Osal_MemCpy>
 800392e:	2218      	movs	r2, #24
 8003930:	4631      	mov	r1, r6
 8003932:	a802      	add	r0, sp, #8
 8003934:	f000 fa18 	bl	8003d68 <Osal_MemSet>
 8003938:	4b0a      	ldr	r3, [pc, #40]	; (8003964 <aci_gap_update_adv_data+0x50>)
 800393a:	9302      	str	r3, [sp, #8]
 800393c:	f10d 0507 	add.w	r5, sp, #7
 8003940:	2301      	movs	r3, #1
 8003942:	af08      	add	r7, sp, #32
 8003944:	3401      	adds	r4, #1
 8003946:	4631      	mov	r1, r6
 8003948:	a802      	add	r0, sp, #8
 800394a:	e9cd 4505 	strd	r4, r5, [sp, #20]
 800394e:	9704      	str	r7, [sp, #16]
 8003950:	9307      	str	r3, [sp, #28]
 8003952:	f000 fb45 	bl	8003fe0 <hci_send_req>
 8003956:	42b0      	cmp	r0, r6
 8003958:	bfac      	ite	ge
 800395a:	f89d 0007 	ldrbge.w	r0, [sp, #7]
 800395e:	20ff      	movlt	r0, #255	; 0xff
 8003960:	b049      	add	sp, #292	; 0x124
 8003962:	bdf0      	pop	{r4, r5, r6, r7, pc}
 8003964:	008e003f 	.word	0x008e003f

08003968 <aci_gap_configure_whitelist>:
 8003968:	b510      	push	{r4, lr}
 800396a:	2400      	movs	r4, #0
 800396c:	b088      	sub	sp, #32
 800396e:	2218      	movs	r2, #24
 8003970:	4621      	mov	r1, r4
 8003972:	a802      	add	r0, sp, #8
 8003974:	f88d 4007 	strb.w	r4, [sp, #7]
 8003978:	f000 f9f6 	bl	8003d68 <Osal_MemSet>
 800397c:	4b08      	ldr	r3, [pc, #32]	; (80039a0 <aci_gap_configure_whitelist+0x38>)
 800397e:	9302      	str	r3, [sp, #8]
 8003980:	f10d 0307 	add.w	r3, sp, #7
 8003984:	9306      	str	r3, [sp, #24]
 8003986:	4621      	mov	r1, r4
 8003988:	2301      	movs	r3, #1
 800398a:	a802      	add	r0, sp, #8
 800398c:	9307      	str	r3, [sp, #28]
 800398e:	f000 fb27 	bl	8003fe0 <hci_send_req>
 8003992:	42a0      	cmp	r0, r4
 8003994:	bfac      	ite	ge
 8003996:	f89d 0007 	ldrbge.w	r0, [sp, #7]
 800399a:	20ff      	movlt	r0, #255	; 0xff
 800399c:	b008      	add	sp, #32
 800399e:	bd10      	pop	{r4, pc}
 80039a0:	0092003f 	.word	0x0092003f

080039a4 <aci_gap_numeric_comparison_value_confirm_yesno>:
 80039a4:	b570      	push	{r4, r5, r6, lr}
 80039a6:	b0c8      	sub	sp, #288	; 0x120
 80039a8:	2500      	movs	r5, #0
 80039aa:	f8ad 0020 	strh.w	r0, [sp, #32]
 80039ae:	f88d 1022 	strb.w	r1, [sp, #34]	; 0x22
 80039b2:	2218      	movs	r2, #24
 80039b4:	4629      	mov	r1, r5
 80039b6:	a802      	add	r0, sp, #8
 80039b8:	f88d 5007 	strb.w	r5, [sp, #7]
 80039bc:	f000 f9d4 	bl	8003d68 <Osal_MemSet>
 80039c0:	4b0a      	ldr	r3, [pc, #40]	; (80039ec <aci_gap_numeric_comparison_value_confirm_yesno+0x48>)
 80039c2:	9302      	str	r3, [sp, #8]
 80039c4:	f10d 0407 	add.w	r4, sp, #7
 80039c8:	2303      	movs	r3, #3
 80039ca:	e9cd 3405 	strd	r3, r4, [sp, #20]
 80039ce:	ae08      	add	r6, sp, #32
 80039d0:	2301      	movs	r3, #1
 80039d2:	4629      	mov	r1, r5
 80039d4:	a802      	add	r0, sp, #8
 80039d6:	9604      	str	r6, [sp, #16]
 80039d8:	9307      	str	r3, [sp, #28]
 80039da:	f000 fb01 	bl	8003fe0 <hci_send_req>
 80039de:	42a8      	cmp	r0, r5
 80039e0:	bfac      	ite	ge
 80039e2:	f89d 0007 	ldrbge.w	r0, [sp, #7]
 80039e6:	20ff      	movlt	r0, #255	; 0xff
 80039e8:	b048      	add	sp, #288	; 0x120
 80039ea:	bd70      	pop	{r4, r5, r6, pc}
 80039ec:	00a5003f 	.word	0x00a5003f

080039f0 <aci_gatt_init>:
 80039f0:	b510      	push	{r4, lr}
 80039f2:	2400      	movs	r4, #0
 80039f4:	b088      	sub	sp, #32
 80039f6:	2218      	movs	r2, #24
 80039f8:	4621      	mov	r1, r4
 80039fa:	a802      	add	r0, sp, #8
 80039fc:	f88d 4007 	strb.w	r4, [sp, #7]
 8003a00:	f000 f9b2 	bl	8003d68 <Osal_MemSet>
 8003a04:	4b08      	ldr	r3, [pc, #32]	; (8003a28 <aci_gatt_init+0x38>)
 8003a06:	9302      	str	r3, [sp, #8]
 8003a08:	f10d 0307 	add.w	r3, sp, #7
 8003a0c:	9306      	str	r3, [sp, #24]
 8003a0e:	4621      	mov	r1, r4
 8003a10:	2301      	movs	r3, #1
 8003a12:	a802      	add	r0, sp, #8
 8003a14:	9307      	str	r3, [sp, #28]
 8003a16:	f000 fae3 	bl	8003fe0 <hci_send_req>
 8003a1a:	42a0      	cmp	r0, r4
 8003a1c:	bfac      	ite	ge
 8003a1e:	f89d 0007 	ldrbge.w	r0, [sp, #7]
 8003a22:	20ff      	movlt	r0, #255	; 0xff
 8003a24:	b008      	add	sp, #32
 8003a26:	bd10      	pop	{r4, pc}
 8003a28:	0101003f 	.word	0x0101003f

08003a2c <aci_gatt_add_service>:
 8003a2c:	e92d 4ff0 	stmdb	sp!, {r4, r5, r6, r7, r8, r9, sl, fp, lr}
 8003a30:	2801      	cmp	r0, #1
 8003a32:	b0c9      	sub	sp, #292	; 0x124
 8003a34:	4604      	mov	r4, r0
 8003a36:	468a      	mov	sl, r1
 8003a38:	4691      	mov	r9, r2
 8003a3a:	461f      	mov	r7, r3
 8003a3c:	d03b      	beq.n	8003ab6 <aci_gatt_add_service+0x8a>
 8003a3e:	2802      	cmp	r0, #2
 8003a40:	bf0c      	ite	eq
 8003a42:	f04f 0811 	moveq.w	r8, #17
 8003a46:	f04f 0801 	movne.w	r8, #1
 8003a4a:	ad01      	add	r5, sp, #4
 8003a4c:	2203      	movs	r2, #3
 8003a4e:	2100      	movs	r1, #0
 8003a50:	4628      	mov	r0, r5
 8003a52:	ae08      	add	r6, sp, #32
 8003a54:	f000 f988 	bl	8003d68 <Osal_MemSet>
 8003a58:	2c01      	cmp	r4, #1
 8003a5a:	7034      	strb	r4, [r6, #0]
 8003a5c:	d02e      	beq.n	8003abc <aci_gatt_add_service+0x90>
 8003a5e:	2c02      	cmp	r4, #2
 8003a60:	d12e      	bne.n	8003ac0 <aci_gatt_add_service+0x94>
 8003a62:	2410      	movs	r4, #16
 8003a64:	eb06 0b08 	add.w	fp, r6, r8
 8003a68:	4622      	mov	r2, r4
 8003a6a:	4651      	mov	r1, sl
 8003a6c:	f10d 0021 	add.w	r0, sp, #33	; 0x21
 8003a70:	f000 f978 	bl	8003d64 <Osal_MemCpy>
 8003a74:	f806 9008 	strb.w	r9, [r6, r8]
 8003a78:	2218      	movs	r2, #24
 8003a7a:	2100      	movs	r1, #0
 8003a7c:	f88b 7001 	strb.w	r7, [fp, #1]
 8003a80:	a802      	add	r0, sp, #8
 8003a82:	f000 f971 	bl	8003d68 <Osal_MemSet>
 8003a86:	4b10      	ldr	r3, [pc, #64]	; (8003ac8 <aci_gatt_add_service+0x9c>)
 8003a88:	9302      	str	r3, [sp, #8]
 8003a8a:	3403      	adds	r4, #3
 8003a8c:	2303      	movs	r3, #3
 8003a8e:	2100      	movs	r1, #0
 8003a90:	a802      	add	r0, sp, #8
 8003a92:	e9cd 4505 	strd	r4, r5, [sp, #20]
 8003a96:	9604      	str	r6, [sp, #16]
 8003a98:	9307      	str	r3, [sp, #28]
 8003a9a:	f000 faa1 	bl	8003fe0 <hci_send_req>
 8003a9e:	2800      	cmp	r0, #0
 8003aa0:	db10      	blt.n	8003ac4 <aci_gatt_add_service+0x98>
 8003aa2:	7828      	ldrb	r0, [r5, #0]
 8003aa4:	b920      	cbnz	r0, 8003ab0 <aci_gatt_add_service+0x84>
 8003aa6:	682b      	ldr	r3, [r5, #0]
 8003aa8:	9a52      	ldr	r2, [sp, #328]	; 0x148
 8003aaa:	f3c3 230f 	ubfx	r3, r3, #8, #16
 8003aae:	8013      	strh	r3, [r2, #0]
 8003ab0:	b049      	add	sp, #292	; 0x124
 8003ab2:	e8bd 8ff0 	ldmia.w	sp!, {r4, r5, r6, r7, r8, r9, sl, fp, pc}
 8003ab6:	f04f 0803 	mov.w	r8, #3
 8003aba:	e7c6      	b.n	8003a4a <aci_gatt_add_service+0x1e>
 8003abc:	2402      	movs	r4, #2
 8003abe:	e7d1      	b.n	8003a64 <aci_gatt_add_service+0x38>
 8003ac0:	2097      	movs	r0, #151	; 0x97
 8003ac2:	e7f5      	b.n	8003ab0 <aci_gatt_add_service+0x84>
 8003ac4:	20ff      	movs	r0, #255	; 0xff
 8003ac6:	e7f3      	b.n	8003ab0 <aci_gatt_add_service+0x84>
 8003ac8:	0102003f 	.word	0x0102003f

08003acc <aci_gatt_add_char>:
 8003acc:	e92d 43f0 	stmdb	sp!, {r4, r5, r6, r7, r8, r9, lr}
 8003ad0:	2901      	cmp	r1, #1
 8003ad2:	b0c9      	sub	sp, #292	; 0x124
 8003ad4:	4606      	mov	r6, r0
 8003ad6:	460c      	mov	r4, r1
 8003ad8:	4691      	mov	r9, r2
 8003ada:	4698      	mov	r8, r3
 8003adc:	d047      	beq.n	8003b6e <aci_gatt_add_char+0xa2>
 8003ade:	2902      	cmp	r1, #2
 8003ae0:	bf0c      	ite	eq
 8003ae2:	2713      	moveq	r7, #19
 8003ae4:	2703      	movne	r7, #3
 8003ae6:	ad08      	add	r5, sp, #32
 8003ae8:	2203      	movs	r2, #3
 8003aea:	2100      	movs	r1, #0
 8003aec:	a801      	add	r0, sp, #4
 8003aee:	f000 f93b 	bl	8003d68 <Osal_MemSet>
 8003af2:	2c01      	cmp	r4, #1
 8003af4:	802e      	strh	r6, [r5, #0]
 8003af6:	70ac      	strb	r4, [r5, #2]
 8003af8:	d03b      	beq.n	8003b72 <aci_gatt_add_char+0xa6>
 8003afa:	2c02      	cmp	r4, #2
 8003afc:	d13b      	bne.n	8003b76 <aci_gatt_add_char+0xaa>
 8003afe:	2410      	movs	r4, #16
 8003b00:	19ee      	adds	r6, r5, r7
 8003b02:	4622      	mov	r2, r4
 8003b04:	4649      	mov	r1, r9
 8003b06:	f10d 0023 	add.w	r0, sp, #35	; 0x23
 8003b0a:	f000 f92b 	bl	8003d64 <Osal_MemCpy>
 8003b0e:	f89d 3140 	ldrb.w	r3, [sp, #320]	; 0x140
 8003b12:	f825 8007 	strh.w	r8, [r5, r7]
 8003b16:	70b3      	strb	r3, [r6, #2]
 8003b18:	f89d 3144 	ldrb.w	r3, [sp, #324]	; 0x144
 8003b1c:	70f3      	strb	r3, [r6, #3]
 8003b1e:	f89d 3148 	ldrb.w	r3, [sp, #328]	; 0x148
 8003b22:	7133      	strb	r3, [r6, #4]
 8003b24:	f89d 314c 	ldrb.w	r3, [sp, #332]	; 0x14c
 8003b28:	7173      	strb	r3, [r6, #5]
 8003b2a:	f89d 3150 	ldrb.w	r3, [sp, #336]	; 0x150
 8003b2e:	71b3      	strb	r3, [r6, #6]
 8003b30:	2218      	movs	r2, #24
 8003b32:	2100      	movs	r1, #0
 8003b34:	a802      	add	r0, sp, #8
 8003b36:	f000 f917 	bl	8003d68 <Osal_MemSet>
 8003b3a:	340a      	adds	r4, #10
 8003b3c:	4b10      	ldr	r3, [pc, #64]	; (8003b80 <aci_gatt_add_char+0xb4>)
 8003b3e:	9302      	str	r3, [sp, #8]
 8003b40:	9405      	str	r4, [sp, #20]
 8003b42:	2303      	movs	r3, #3
 8003b44:	ac01      	add	r4, sp, #4
 8003b46:	2100      	movs	r1, #0
 8003b48:	a802      	add	r0, sp, #8
 8003b4a:	9504      	str	r5, [sp, #16]
 8003b4c:	9406      	str	r4, [sp, #24]
 8003b4e:	9307      	str	r3, [sp, #28]
 8003b50:	f000 fa46 	bl	8003fe0 <hci_send_req>
 8003b54:	2800      	cmp	r0, #0
 8003b56:	db10      	blt.n	8003b7a <aci_gatt_add_char+0xae>
 8003b58:	f89d 0004 	ldrb.w	r0, [sp, #4]
 8003b5c:	b920      	cbnz	r0, 8003b68 <aci_gatt_add_char+0x9c>
 8003b5e:	9b01      	ldr	r3, [sp, #4]
 8003b60:	9a55      	ldr	r2, [sp, #340]	; 0x154
 8003b62:	f3c3 230f 	ubfx	r3, r3, #8, #16
 8003b66:	8013      	strh	r3, [r2, #0]
 8003b68:	b049      	add	sp, #292	; 0x124
 8003b6a:	e8bd 83f0 	ldmia.w	sp!, {r4, r5, r6, r7, r8, r9, pc}
 8003b6e:	2705      	movs	r7, #5
 8003b70:	e7b9      	b.n	8003ae6 <aci_gatt_add_char+0x1a>
 8003b72:	2402      	movs	r4, #2
 8003b74:	e7c4      	b.n	8003b00 <aci_gatt_add_char+0x34>
 8003b76:	2097      	movs	r0, #151	; 0x97
 8003b78:	e7f6      	b.n	8003b68 <aci_gatt_add_char+0x9c>
 8003b7a:	20ff      	movs	r0, #255	; 0xff
 8003b7c:	e7f4      	b.n	8003b68 <aci_gatt_add_char+0x9c>
 8003b7e:	bf00      	nop
 8003b80:	0104003f 	.word	0x0104003f

08003b84 <aci_gatt_update_char_value>:
 8003b84:	b5f0      	push	{r4, r5, r6, r7, lr}
 8003b86:	b0c9      	sub	sp, #292	; 0x124
 8003b88:	2700      	movs	r7, #0
 8003b8a:	f8ad 0020 	strh.w	r0, [sp, #32]
 8003b8e:	f8ad 1022 	strh.w	r1, [sp, #34]	; 0x22
 8003b92:	f88d 2024 	strb.w	r2, [sp, #36]	; 0x24
 8003b96:	994e      	ldr	r1, [sp, #312]	; 0x138
 8003b98:	f88d 3025 	strb.w	r3, [sp, #37]	; 0x25
 8003b9c:	461a      	mov	r2, r3
 8003b9e:	f10d 0026 	add.w	r0, sp, #38	; 0x26
 8003ba2:	461c      	mov	r4, r3
 8003ba4:	f88d 7007 	strb.w	r7, [sp, #7]
 8003ba8:	f000 f8dc 	bl	8003d64 <Osal_MemCpy>
 8003bac:	2218      	movs	r2, #24
 8003bae:	4639      	mov	r1, r7
 8003bb0:	a802      	add	r0, sp, #8
 8003bb2:	f000 f8d9 	bl	8003d68 <Osal_MemSet>
 8003bb6:	4b0b      	ldr	r3, [pc, #44]	; (8003be4 <aci_gatt_update_char_value+0x60>)
 8003bb8:	9302      	str	r3, [sp, #8]
 8003bba:	f10d 0607 	add.w	r6, sp, #7
 8003bbe:	2301      	movs	r3, #1
 8003bc0:	ad08      	add	r5, sp, #32
 8003bc2:	3406      	adds	r4, #6
 8003bc4:	4639      	mov	r1, r7
 8003bc6:	a802      	add	r0, sp, #8
 8003bc8:	e9cd 4605 	strd	r4, r6, [sp, #20]
 8003bcc:	9504      	str	r5, [sp, #16]
 8003bce:	9307      	str	r3, [sp, #28]
 8003bd0:	f000 fa06 	bl	8003fe0 <hci_send_req>
 8003bd4:	42b8      	cmp	r0, r7
 8003bd6:	bfac      	ite	ge
 8003bd8:	f89d 0007 	ldrbge.w	r0, [sp, #7]
 8003bdc:	20ff      	movlt	r0, #255	; 0xff
 8003bde:	b049      	add	sp, #292	; 0x124
 8003be0:	bdf0      	pop	{r4, r5, r6, r7, pc}
 8003be2:	bf00      	nop
 8003be4:	0106003f 	.word	0x0106003f

08003be8 <aci_hal_write_config_data>:
 8003be8:	b5f0      	push	{r4, r5, r6, r7, lr}
 8003bea:	b0c9      	sub	sp, #292	; 0x124
 8003bec:	460c      	mov	r4, r1
 8003bee:	2600      	movs	r6, #0
 8003bf0:	4611      	mov	r1, r2
 8003bf2:	f88d 0020 	strb.w	r0, [sp, #32]
 8003bf6:	4622      	mov	r2, r4
 8003bf8:	f10d 0022 	add.w	r0, sp, #34	; 0x22
 8003bfc:	f88d 4021 	strb.w	r4, [sp, #33]	; 0x21
 8003c00:	f88d 6007 	strb.w	r6, [sp, #7]
 8003c04:	f000 f8ae 	bl	8003d64 <Osal_MemCpy>
 8003c08:	2218      	movs	r2, #24
 8003c0a:	4631      	mov	r1, r6
 8003c0c:	a802      	add	r0, sp, #8
 8003c0e:	f000 f8ab 	bl	8003d68 <Osal_MemSet>
 8003c12:	4b0b      	ldr	r3, [pc, #44]	; (8003c40 <aci_hal_write_config_data+0x58>)
 8003c14:	9302      	str	r3, [sp, #8]
 8003c16:	f10d 0507 	add.w	r5, sp, #7
 8003c1a:	2301      	movs	r3, #1
 8003c1c:	af08      	add	r7, sp, #32
 8003c1e:	3402      	adds	r4, #2
 8003c20:	4631      	mov	r1, r6
 8003c22:	a802      	add	r0, sp, #8
 8003c24:	e9cd 4505 	strd	r4, r5, [sp, #20]
 8003c28:	9704      	str	r7, [sp, #16]
 8003c2a:	9307      	str	r3, [sp, #28]
 8003c2c:	f000 f9d8 	bl	8003fe0 <hci_send_req>
 8003c30:	42b0      	cmp	r0, r6
 8003c32:	bfac      	ite	ge
 8003c34:	f89d 0007 	ldrbge.w	r0, [sp, #7]
 8003c38:	20ff      	movlt	r0, #255	; 0xff
 8003c3a:	b049      	add	sp, #292	; 0x124
 8003c3c:	bdf0      	pop	{r4, r5, r6, r7, pc}
 8003c3e:	bf00      	nop
 8003c40:	000c003f 	.word	0x000c003f

08003c44 <aci_hal_set_tx_power_level>:
 8003c44:	b570      	push	{r4, r5, r6, lr}
 8003c46:	b0c8      	sub	sp, #288	; 0x120
 8003c48:	2500      	movs	r5, #0
 8003c4a:	f88d 0020 	strb.w	r0, [sp, #32]
 8003c4e:	f88d 1021 	strb.w	r1, [sp, #33]	; 0x21
 8003c52:	2218      	movs	r2, #24
 8003c54:	4629      	mov	r1, r5
 8003c56:	a802      	add	r0, sp, #8
 8003c58:	f88d 5007 	strb.w	r5, [sp, #7]
 8003c5c:	f000 f884 	bl	8003d68 <Osal_MemSet>
 8003c60:	4b0a      	ldr	r3, [pc, #40]	; (8003c8c <aci_hal_set_tx_power_level+0x48>)
 8003c62:	9302      	str	r3, [sp, #8]
 8003c64:	f10d 0407 	add.w	r4, sp, #7
 8003c68:	2302      	movs	r3, #2
 8003c6a:	e9cd 3405 	strd	r3, r4, [sp, #20]
 8003c6e:	ae08      	add	r6, sp, #32
 8003c70:	2301      	movs	r3, #1
 8003c72:	4629      	mov	r1, r5
 8003c74:	a802      	add	r0, sp, #8
 8003c76:	9604      	str	r6, [sp, #16]
 8003c78:	9307      	str	r3, [sp, #28]
 8003c7a:	f000 f9b1 	bl	8003fe0 <hci_send_req>
 8003c7e:	42a8      	cmp	r0, r5
 8003c80:	bfac      	ite	ge
 8003c82:	f89d 0007 	ldrbge.w	r0, [sp, #7]
 8003c86:	20ff      	movlt	r0, #255	; 0xff
 8003c88:	b048      	add	sp, #288	; 0x120
 8003c8a:	bd70      	pop	{r4, r5, r6, pc}
 8003c8c:	000f003f 	.word	0x000f003f

08003c90 <aci_hal_set_radio_activity_mask>:
 8003c90:	b570      	push	{r4, r5, r6, lr}
 8003c92:	b0c8      	sub	sp, #288	; 0x120
 8003c94:	2500      	movs	r5, #0
 8003c96:	f8ad 0020 	strh.w	r0, [sp, #32]
 8003c9a:	2218      	movs	r2, #24
 8003c9c:	4629      	mov	r1, r5
 8003c9e:	a802      	add	r0, sp, #8
 8003ca0:	f88d 5007 	strb.w	r5, [sp, #7]
 8003ca4:	f000 f860 	bl	8003d68 <Osal_MemSet>
 8003ca8:	4b0a      	ldr	r3, [pc, #40]	; (8003cd4 <aci_hal_set_radio_activity_mask+0x44>)
 8003caa:	9302      	str	r3, [sp, #8]
 8003cac:	f10d 0407 	add.w	r4, sp, #7
 8003cb0:	2302      	movs	r3, #2
 8003cb2:	e9cd 3405 	strd	r3, r4, [sp, #20]
 8003cb6:	ae08      	add	r6, sp, #32
 8003cb8:	2301      	movs	r3, #1
 8003cba:	4629      	mov	r1, r5
 8003cbc:	a802      	add	r0, sp, #8
 8003cbe:	9604      	str	r6, [sp, #16]
 8003cc0:	9307      	str	r3, [sp, #28]
 8003cc2:	f000 f98d 	bl	8003fe0 <hci_send_req>
 8003cc6:	42a8      	cmp	r0, r5
 8003cc8:	bfac      	ite	ge
 8003cca:	f89d 0007 	ldrbge.w	r0, [sp, #7]
 8003cce:	20ff      	movlt	r0, #255	; 0xff
 8003cd0:	b048      	add	sp, #288	; 0x120
 8003cd2:	bd70      	pop	{r4, r5, r6, pc}
 8003cd4:	0018003f 	.word	0x0018003f

08003cd8 <hci_reset>:
 8003cd8:	b510      	push	{r4, lr}
 8003cda:	2400      	movs	r4, #0
 8003cdc:	b088      	sub	sp, #32
 8003cde:	2218      	movs	r2, #24
 8003ce0:	4621      	mov	r1, r4
 8003ce2:	a802      	add	r0, sp, #8
 8003ce4:	f88d 4007 	strb.w	r4, [sp, #7]
 8003ce8:	f000 f83e 	bl	8003d68 <Osal_MemSet>
 8003cec:	f04f 1303 	mov.w	r3, #196611	; 0x30003
 8003cf0:	9302      	str	r3, [sp, #8]
 8003cf2:	f10d 0307 	add.w	r3, sp, #7
 8003cf6:	9306      	str	r3, [sp, #24]
 8003cf8:	4621      	mov	r1, r4
 8003cfa:	2301      	movs	r3, #1
 8003cfc:	a802      	add	r0, sp, #8
 8003cfe:	9307      	str	r3, [sp, #28]
 8003d00:	f000 f96e 	bl	8003fe0 <hci_send_req>
 8003d04:	42a0      	cmp	r0, r4
 8003d06:	bfac      	ite	ge
 8003d08:	f89d 0007 	ldrbge.w	r0, [sp, #7]
 8003d0c:	20ff      	movlt	r0, #255	; 0xff
 8003d0e:	b008      	add	sp, #32
 8003d10:	bd10      	pop	{r4, pc}
	...

08003d14 <hci_le_set_default_phy>:
 8003d14:	b570      	push	{r4, r5, r6, lr}
 8003d16:	b0c8      	sub	sp, #288	; 0x120
 8003d18:	2600      	movs	r6, #0
 8003d1a:	f88d 0020 	strb.w	r0, [sp, #32]
 8003d1e:	f88d 1021 	strb.w	r1, [sp, #33]	; 0x21
 8003d22:	f88d 2022 	strb.w	r2, [sp, #34]	; 0x22
 8003d26:	4631      	mov	r1, r6
 8003d28:	2218      	movs	r2, #24
 8003d2a:	a802      	add	r0, sp, #8
 8003d2c:	f88d 6007 	strb.w	r6, [sp, #7]
 8003d30:	f000 f81a 	bl	8003d68 <Osal_MemSet>
 8003d34:	4b0a      	ldr	r3, [pc, #40]	; (8003d60 <hci_le_set_default_phy+0x4c>)
 8003d36:	9302      	str	r3, [sp, #8]
 8003d38:	f10d 0507 	add.w	r5, sp, #7
 8003d3c:	2303      	movs	r3, #3
 8003d3e:	e9cd 3505 	strd	r3, r5, [sp, #20]
 8003d42:	ac08      	add	r4, sp, #32
 8003d44:	2301      	movs	r3, #1
 8003d46:	4631      	mov	r1, r6
 8003d48:	a802      	add	r0, sp, #8
 8003d4a:	9404      	str	r4, [sp, #16]
 8003d4c:	9307      	str	r3, [sp, #28]
 8003d4e:	f000 f947 	bl	8003fe0 <hci_send_req>
 8003d52:	42b0      	cmp	r0, r6
 8003d54:	bfac      	ite	ge
 8003d56:	f89d 0007 	ldrbge.w	r0, [sp, #7]
 8003d5a:	20ff      	movlt	r0, #255	; 0xff
 8003d5c:	b048      	add	sp, #288	; 0x120
 8003d5e:	bd70      	pop	{r4, r5, r6, pc}
 8003d60:	00310008 	.word	0x00310008

08003d64 <Osal_MemCpy>:
 8003d64:	f001 b910 	b.w	8004f88 <memcpy>

08003d68 <Osal_MemSet>:
 8003d68:	f001 b936 	b.w	8004fd8 <memset>

08003d6c <BAS_Init>:
 8003d6c:	4770      	bx	lr

08003d6e <BLS_Init>:
 8003d6e:	4770      	bx	lr

08003d70 <CRS_STM_Init>:
 8003d70:	4770      	bx	lr

08003d72 <DIS_Init>:
 8003d72:	4770      	bx	lr

08003d74 <EDS_STM_Init>:
 8003d74:	4770      	bx	lr

08003d76 <HIDS_Init>:
 8003d76:	4770      	bx	lr

08003d78 <HRS_Init>:
 8003d78:	4770      	bx	lr

08003d7a <HTS_Init>:
 8003d7a:	4770      	bx	lr

08003d7c <IAS_Init>:
 8003d7c:	4770      	bx	lr

08003d7e <LLS_Init>:
 8003d7e:	4770      	bx	lr

08003d80 <TPS_Init>:
 8003d80:	4770      	bx	lr

08003d82 <MOTENV_STM_Init>:
 8003d82:	4770      	bx	lr

08003d84 <P2PS_STM_Init>:
 8003d84:	4770      	bx	lr

08003d86 <ZDD_STM_Init>:
 8003d86:	4770      	bx	lr

08003d88 <OTAS_STM_Init>:
 8003d88:	4770      	bx	lr

08003d8a <MESH_Init>:
 8003d8a:	4770      	bx	lr

08003d8c <BVOPUS_STM_Init>:
 8003d8c:	4770      	bx	lr

08003d8e <SVCCTL_SvcInit>:
 8003d8e:	b508      	push	{r3, lr}
 8003d90:	f7ff ffec 	bl	8003d6c <BAS_Init>
 8003d94:	f7ff ffeb 	bl	8003d6e <BLS_Init>
 8003d98:	f7ff ffea 	bl	8003d70 <CRS_STM_Init>
 8003d9c:	f7ff ffe9 	bl	8003d72 <DIS_Init>
 8003da0:	f7ff ffe8 	bl	8003d74 <EDS_STM_Init>
 8003da4:	f7ff ffe7 	bl	8003d76 <HIDS_Init>
 8003da8:	f7ff ffe6 	bl	8003d78 <HRS_Init>
 8003dac:	f7ff ffe5 	bl	8003d7a <HTS_Init>
 8003db0:	f7ff ffe4 	bl	8003d7c <IAS_Init>
 8003db4:	f7ff ffe3 	bl	8003d7e <LLS_Init>
 8003db8:	f7ff ffe2 	bl	8003d80 <TPS_Init>
 8003dbc:	f7ff ffe1 	bl	8003d82 <MOTENV_STM_Init>
 8003dc0:	f7ff ffe0 	bl	8003d84 <P2PS_STM_Init>
 8003dc4:	f7ff ffdf 	bl	8003d86 <ZDD_STM_Init>
 8003dc8:	f7ff ffde 	bl	8003d88 <OTAS_STM_Init>
 8003dcc:	f7ff ffde 	bl	8003d8c <BVOPUS_STM_Init>
 8003dd0:	f7ff ffdb 	bl	8003d8a <MESH_Init>
 8003dd4:	f000 fdaa 	bl	800492c <SVCCTL_InitCustomSvc>
 8003dd8:	bd08      	pop	{r3, pc}
	...

08003ddc <SVCCTL_Init>:
 8003ddc:	b508      	push	{r3, lr}
 8003dde:	4b04      	ldr	r3, [pc, #16]	; (8003df0 <SVCCTL_Init+0x14>)
 8003de0:	2200      	movs	r2, #0
 8003de2:	771a      	strb	r2, [r3, #28]
 8003de4:	f883 2020 	strb.w	r2, [r3, #32]
 8003de8:	f7ff ffd1 	bl	8003d8e <SVCCTL_SvcInit>
 8003dec:	bd08      	pop	{r3, pc}
 8003dee:	bf00      	nop
 8003df0:	20000140 	.word	0x20000140

08003df4 <SVCCTL_RegisterSvcHandler>:
 8003df4:	4a03      	ldr	r2, [pc, #12]	; (8003e04 <SVCCTL_RegisterSvcHandler+0x10>)
 8003df6:	7f13      	ldrb	r3, [r2, #28]
 8003df8:	f842 0023 	str.w	r0, [r2, r3, lsl #2]
 8003dfc:	3301      	adds	r3, #1
 8003dfe:	7713      	strb	r3, [r2, #28]
 8003e00:	4770      	bx	lr
 8003e02:	bf00      	nop
 8003e04:	20000140 	.word	0x20000140

08003e08 <SVCCTL_UserEvtRx>:
 8003e08:	b570      	push	{r4, r5, r6, lr}
 8003e0a:	7843      	ldrb	r3, [r0, #1]
 8003e0c:	2bff      	cmp	r3, #255	; 0xff
 8003e0e:	4604      	mov	r4, r0
 8003e10:	d004      	beq.n	8003e1c <SVCCTL_UserEvtRx+0x14>
 8003e12:	4620      	mov	r0, r4
 8003e14:	e8bd 4070 	ldmia.w	sp!, {r4, r5, r6, lr}
 8003e18:	f000 bcbc 	b.w	8004794 <SVCCTL_App_Notification>
 8003e1c:	f8b0 3003 	ldrh.w	r3, [r0, #3]
 8003e20:	f403 437f 	and.w	r3, r3, #65280	; 0xff00
 8003e24:	f5b3 6f40 	cmp.w	r3, #3072	; 0xc00
 8003e28:	d1f3      	bne.n	8003e12 <SVCCTL_UserEvtRx+0xa>
 8003e2a:	4e08      	ldr	r6, [pc, #32]	; (8003e4c <SVCCTL_UserEvtRx+0x44>)
 8003e2c:	2500      	movs	r5, #0
 8003e2e:	7f32      	ldrb	r2, [r6, #28]
 8003e30:	b2eb      	uxtb	r3, r5
 8003e32:	429a      	cmp	r2, r3
 8003e34:	d9ed      	bls.n	8003e12 <SVCCTL_UserEvtRx+0xa>
 8003e36:	f856 3023 	ldr.w	r3, [r6, r3, lsl #2]
 8003e3a:	4620      	mov	r0, r4
 8003e3c:	4798      	blx	r3
 8003e3e:	3501      	adds	r5, #1
 8003e40:	2800      	cmp	r0, #0
 8003e42:	d0f4      	beq.n	8003e2e <SVCCTL_UserEvtRx+0x26>
 8003e44:	3802      	subs	r0, #2
 8003e46:	bf18      	it	ne
 8003e48:	2001      	movne	r0, #1
 8003e4a:	bd70      	pop	{r4, r5, r6, pc}
 8003e4c:	20000140 	.word	0x20000140

08003e50 <SHCI_C2_BLE_Init>:
 8003e50:	b51f      	push	{r0, r1, r2, r3, r4, lr}
 8003e52:	f100 020c 	add.w	r2, r0, #12
 8003e56:	466b      	mov	r3, sp
 8003e58:	2125      	movs	r1, #37	; 0x25
 8003e5a:	f64f 4066 	movw	r0, #64614	; 0xfc66
 8003e5e:	f000 f9bd 	bl	80041dc <shci_send>
 8003e62:	f89d 000e 	ldrb.w	r0, [sp, #14]
 8003e66:	b005      	add	sp, #20
 8003e68:	f85d fb04 	ldr.w	pc, [sp], #4

08003e6c <SHCI_C2_DEBUG_Init>:
 8003e6c:	b51f      	push	{r0, r1, r2, r3, r4, lr}
 8003e6e:	f100 020c 	add.w	r2, r0, #12
 8003e72:	466b      	mov	r3, sp
 8003e74:	210f      	movs	r1, #15
 8003e76:	f64f 4068 	movw	r0, #64616	; 0xfc68
 8003e7a:	f000 f9af 	bl	80041dc <shci_send>
 8003e7e:	f89d 000e 	ldrb.w	r0, [sp, #14]
 8003e82:	b005      	add	sp, #20
 8003e84:	f85d fb04 	ldr.w	pc, [sp], #4

08003e88 <SHCI_C2_Config>:
 8003e88:	b51f      	push	{r0, r1, r2, r3, r4, lr}
 8003e8a:	4602      	mov	r2, r0
 8003e8c:	466b      	mov	r3, sp
 8003e8e:	210e      	movs	r1, #14
 8003e90:	f64f 4075 	movw	r0, #64629	; 0xfc75
 8003e94:	f000 f9a2 	bl	80041dc <shci_send>
 8003e98:	f89d 000e 	ldrb.w	r0, [sp, #14]
 8003e9c:	b005      	add	sp, #20
 8003e9e:	f85d fb04 	ldr.w	pc, [sp], #4
	...

08003ea4 <SHCI_GetWirelessFwInfo>:
 8003ea4:	4b1c      	ldr	r3, [pc, #112]	; (8003f18 <SHCI_GetWirelessFwInfo+0x74>)
 8003ea6:	491d      	ldr	r1, [pc, #116]	; (8003f1c <SHCI_GetWirelessFwInfo+0x78>)
 8003ea8:	6bdb      	ldr	r3, [r3, #60]	; 0x3c
 8003eaa:	009b      	lsls	r3, r3, #2
 8003eac:	b29b      	uxth	r3, r3
 8003eae:	f103 5300 	add.w	r3, r3, #536870912	; 0x20000000
 8003eb2:	b570      	push	{r4, r5, r6, lr}
 8003eb4:	f503 3340 	add.w	r3, r3, #196608	; 0x30000
 8003eb8:	681a      	ldr	r2, [r3, #0]
 8003eba:	6816      	ldr	r6, [r2, #0]
 8003ebc:	6953      	ldr	r3, [r2, #20]
 8003ebe:	6994      	ldr	r4, [r2, #24]
 8003ec0:	6915      	ldr	r5, [r2, #16]
 8003ec2:	428e      	cmp	r6, r1
 8003ec4:	bf1d      	ittte	ne
 8003ec6:	4626      	movne	r6, r4
 8003ec8:	461c      	movne	r4, r3
 8003eca:	462b      	movne	r3, r5
 8003ecc:	68d1      	ldreq	r1, [r2, #12]
 8003ece:	bf1a      	itte	ne
 8003ed0:	6851      	ldrne	r1, [r2, #4]
 8003ed2:	6895      	ldrne	r5, [r2, #8]
 8003ed4:	69d6      	ldreq	r6, [r2, #28]
 8003ed6:	7246      	strb	r6, [r0, #9]
 8003ed8:	0e1a      	lsrs	r2, r3, #24
 8003eda:	7002      	strb	r2, [r0, #0]
 8003edc:	0c1a      	lsrs	r2, r3, #16
 8003ede:	7042      	strb	r2, [r0, #1]
 8003ee0:	0a1a      	lsrs	r2, r3, #8
 8003ee2:	7082      	strb	r2, [r0, #2]
 8003ee4:	f3c3 1203 	ubfx	r2, r3, #4, #4
 8003ee8:	f003 030f 	and.w	r3, r3, #15
 8003eec:	7103      	strb	r3, [r0, #4]
 8003eee:	0e23      	lsrs	r3, r4, #24
 8003ef0:	7143      	strb	r3, [r0, #5]
 8003ef2:	0c23      	lsrs	r3, r4, #16
 8003ef4:	7183      	strb	r3, [r0, #6]
 8003ef6:	0a23      	lsrs	r3, r4, #8
 8003ef8:	71c3      	strb	r3, [r0, #7]
 8003efa:	0e0b      	lsrs	r3, r1, #24
 8003efc:	7283      	strb	r3, [r0, #10]
 8003efe:	0c0b      	lsrs	r3, r1, #16
 8003f00:	72c3      	strb	r3, [r0, #11]
 8003f02:	0e2b      	lsrs	r3, r5, #24
 8003f04:	7343      	strb	r3, [r0, #13]
 8003f06:	0a09      	lsrs	r1, r1, #8
 8003f08:	0c2b      	lsrs	r3, r5, #16
 8003f0a:	70c2      	strb	r2, [r0, #3]
 8003f0c:	7204      	strb	r4, [r0, #8]
 8003f0e:	7301      	strb	r1, [r0, #12]
 8003f10:	7383      	strb	r3, [r0, #14]
 8003f12:	73c5      	strb	r5, [r0, #15]
 8003f14:	2000      	movs	r0, #0
 8003f16:	bd70      	pop	{r4, r5, r6, pc}
 8003f18:	58004000 	.word	0x58004000
 8003f1c:	a94656b9 	.word	0xa94656b9

08003f20 <hci_init>:
 8003f20:	b57f      	push	{r0, r1, r2, r3, r4, r5, r6, lr}
 8003f22:	4d0f      	ldr	r5, [pc, #60]	; (8003f60 <hci_init+0x40>)
 8003f24:	4b0f      	ldr	r3, [pc, #60]	; (8003f64 <hci_init+0x44>)
 8003f26:	684a      	ldr	r2, [r1, #4]
 8003f28:	4e0f      	ldr	r6, [pc, #60]	; (8003f68 <hci_init+0x48>)
 8003f2a:	61e8      	str	r0, [r5, #28]
 8003f2c:	460c      	mov	r4, r1
 8003f2e:	4628      	mov	r0, r5
 8003f30:	601a      	str	r2, [r3, #0]
 8003f32:	f000 f8d3 	bl	80040dc <hci_register_io_bus>
 8003f36:	480d      	ldr	r0, [pc, #52]	; (8003f6c <hci_init+0x4c>)
 8003f38:	6824      	ldr	r4, [r4, #0]
 8003f3a:	f000 fad1 	bl	80044e0 <LST_init_head>
 8003f3e:	4630      	mov	r0, r6
 8003f40:	f840 4b04 	str.w	r4, [r0], #4
 8003f44:	f000 facc 	bl	80044e0 <LST_init_head>
 8003f48:	2301      	movs	r3, #1
 8003f4a:	7333      	strb	r3, [r6, #12]
 8003f4c:	682b      	ldr	r3, [r5, #0]
 8003f4e:	b123      	cbz	r3, 8003f5a <hci_init+0x3a>
 8003f50:	4a07      	ldr	r2, [pc, #28]	; (8003f70 <hci_init+0x50>)
 8003f52:	9402      	str	r4, [sp, #8]
 8003f54:	9200      	str	r2, [sp, #0]
 8003f56:	4668      	mov	r0, sp
 8003f58:	4798      	blx	r3
 8003f5a:	b004      	add	sp, #16
 8003f5c:	bd70      	pop	{r4, r5, r6, pc}
 8003f5e:	bf00      	nop
 8003f60:	20000790 	.word	0x20000790
 8003f64:	2000078c 	.word	0x2000078c
 8003f68:	20000164 	.word	0x20000164
 8003f6c:	20000784 	.word	0x20000784
 8003f70:	080040a9 	.word	0x080040a9

08003f74 <hci_user_evt_proc>:
 8003f74:	b51f      	push	{r0, r1, r2, r3, r4, lr}
 8003f76:	4c17      	ldr	r4, [pc, #92]	; (8003fd4 <hci_user_evt_proc+0x60>)
 8003f78:	1d20      	adds	r0, r4, #4
 8003f7a:	f000 fab4 	bl	80044e6 <LST_is_empty>
 8003f7e:	b9b0      	cbnz	r0, 8003fae <hci_user_evt_proc+0x3a>
 8003f80:	7b23      	ldrb	r3, [r4, #12]
 8003f82:	b1a3      	cbz	r3, 8003fae <hci_user_evt_proc+0x3a>
 8003f84:	a901      	add	r1, sp, #4
 8003f86:	1d20      	adds	r0, r4, #4
 8003f88:	f000 fada 	bl	8004540 <LST_remove_head>
 8003f8c:	4b12      	ldr	r3, [pc, #72]	; (8003fd8 <hci_user_evt_proc+0x64>)
 8003f8e:	69da      	ldr	r2, [r3, #28]
 8003f90:	2301      	movs	r3, #1
 8003f92:	b1ba      	cbz	r2, 8003fc4 <hci_user_evt_proc+0x50>
 8003f94:	9901      	ldr	r1, [sp, #4]
 8003f96:	f88d 3008 	strb.w	r3, [sp, #8]
 8003f9a:	9103      	str	r1, [sp, #12]
 8003f9c:	a802      	add	r0, sp, #8
 8003f9e:	4790      	blx	r2
 8003fa0:	f89d 3008 	ldrb.w	r3, [sp, #8]
 8003fa4:	7323      	strb	r3, [r4, #12]
 8003fa6:	b17b      	cbz	r3, 8003fc8 <hci_user_evt_proc+0x54>
 8003fa8:	9801      	ldr	r0, [sp, #4]
 8003faa:	f000 fa57 	bl	800445c <TL_MM_EvtDone>
 8003fae:	480b      	ldr	r0, [pc, #44]	; (8003fdc <hci_user_evt_proc+0x68>)
 8003fb0:	f000 fa99 	bl	80044e6 <LST_is_empty>
 8003fb4:	b920      	cbnz	r0, 8003fc0 <hci_user_evt_proc+0x4c>
 8003fb6:	7b23      	ldrb	r3, [r4, #12]
 8003fb8:	b113      	cbz	r3, 8003fc0 <hci_user_evt_proc+0x4c>
 8003fba:	4808      	ldr	r0, [pc, #32]	; (8003fdc <hci_user_evt_proc+0x68>)
 8003fbc:	f000 fc36 	bl	800482c <hci_notify_asynch_evt>
 8003fc0:	b004      	add	sp, #16
 8003fc2:	bd10      	pop	{r4, pc}
 8003fc4:	7323      	strb	r3, [r4, #12]
 8003fc6:	e7ef      	b.n	8003fa8 <hci_user_evt_proc+0x34>
 8003fc8:	9901      	ldr	r1, [sp, #4]
 8003fca:	1d20      	adds	r0, r4, #4
 8003fcc:	f000 fa95 	bl	80044fa <LST_insert_head>
 8003fd0:	e7ed      	b.n	8003fae <hci_user_evt_proc+0x3a>
 8003fd2:	bf00      	nop
 8003fd4:	20000164 	.word	0x20000164
 8003fd8:	20000790 	.word	0x20000790
 8003fdc:	20000168 	.word	0x20000168

08003fe0 <hci_send_req>:
 8003fe0:	e92d 43f7 	stmdb	sp!, {r0, r1, r2, r4, r5, r6, r7, r8, r9, lr}
 8003fe4:	4e2c      	ldr	r6, [pc, #176]	; (8004098 <hci_send_req+0xb8>)
 8003fe6:	6833      	ldr	r3, [r6, #0]
 8003fe8:	4604      	mov	r4, r0
 8003fea:	b10b      	cbz	r3, 8003ff0 <hci_send_req+0x10>
 8003fec:	2000      	movs	r0, #0
 8003fee:	4798      	blx	r3
 8003ff0:	8863      	ldrh	r3, [r4, #2]
 8003ff2:	8822      	ldrh	r2, [r4, #0]
 8003ff4:	4829      	ldr	r0, [pc, #164]	; (800409c <hci_send_req+0xbc>)
 8003ff6:	f8df 90ac 	ldr.w	r9, [pc, #172]	; 80040a4 <hci_send_req+0xc4>
 8003ffa:	6800      	ldr	r0, [r0, #0]
 8003ffc:	f3c3 0309 	ubfx	r3, r3, #0, #10
 8004000:	ea43 2382 	orr.w	r3, r3, r2, lsl #10
 8004004:	e9d4 1202 	ldrd	r1, r2, [r4, #8]
 8004008:	300c      	adds	r0, #12
 800400a:	f820 3c03 	strh.w	r3, [r0, #-3]
 800400e:	f800 2c01 	strb.w	r2, [r0, #-1]
 8004012:	b2d2      	uxtb	r2, r2
 8004014:	fa1f f883 	uxth.w	r8, r3
 8004018:	f000 ffb6 	bl	8004f88 <memcpy>
 800401c:	4b20      	ldr	r3, [pc, #128]	; (80040a0 <hci_send_req+0xc0>)
 800401e:	2100      	movs	r1, #0
 8004020:	691b      	ldr	r3, [r3, #16]
 8004022:	4608      	mov	r0, r1
 8004024:	4798      	blx	r3
 8004026:	f248 00e8 	movw	r0, #33000	; 0x80e8
 800402a:	f000 fc06 	bl	800483a <hci_cmd_resp_wait>
 800402e:	2700      	movs	r7, #0
 8004030:	4648      	mov	r0, r9
 8004032:	f000 fa58 	bl	80044e6 <LST_is_empty>
 8004036:	b148      	cbz	r0, 800404c <hci_send_req+0x6c>
 8004038:	2f00      	cmp	r7, #0
 800403a:	d0f4      	beq.n	8004026 <hci_send_req+0x46>
 800403c:	6833      	ldr	r3, [r6, #0]
 800403e:	b10b      	cbz	r3, 8004044 <hci_send_req+0x64>
 8004040:	2001      	movs	r0, #1
 8004042:	4798      	blx	r3
 8004044:	2000      	movs	r0, #0
 8004046:	b003      	add	sp, #12
 8004048:	e8bd 83f0 	ldmia.w	sp!, {r4, r5, r6, r7, r8, r9, pc}
 800404c:	a901      	add	r1, sp, #4
 800404e:	4648      	mov	r0, r9
 8004050:	f000 fa76 	bl	8004540 <LST_remove_head>
 8004054:	9d01      	ldr	r5, [sp, #4]
 8004056:	7a6b      	ldrb	r3, [r5, #9]
 8004058:	2b0f      	cmp	r3, #15
 800405a:	d10b      	bne.n	8004074 <hci_send_req+0x94>
 800405c:	f8b5 300d 	ldrh.w	r3, [r5, #13]
 8004060:	4543      	cmp	r3, r8
 8004062:	bf02      	ittt	eq
 8004064:	6923      	ldreq	r3, [r4, #16]
 8004066:	7aea      	ldrbeq	r2, [r5, #11]
 8004068:	701a      	strbeq	r2, [r3, #0]
 800406a:	7b2b      	ldrb	r3, [r5, #12]
 800406c:	2b00      	cmp	r3, #0
 800406e:	d0df      	beq.n	8004030 <hci_send_req+0x50>
 8004070:	2701      	movs	r7, #1
 8004072:	e7dd      	b.n	8004030 <hci_send_req+0x50>
 8004074:	89ab      	ldrh	r3, [r5, #12]
 8004076:	4543      	cmp	r3, r8
 8004078:	d10c      	bne.n	8004094 <hci_send_req+0xb4>
 800407a:	7aaa      	ldrb	r2, [r5, #10]
 800407c:	6963      	ldr	r3, [r4, #20]
 800407e:	6920      	ldr	r0, [r4, #16]
 8004080:	3a03      	subs	r2, #3
 8004082:	b2d2      	uxtb	r2, r2
 8004084:	429a      	cmp	r2, r3
 8004086:	bfa8      	it	ge
 8004088:	461a      	movge	r2, r3
 800408a:	6162      	str	r2, [r4, #20]
 800408c:	f105 010e 	add.w	r1, r5, #14
 8004090:	f000 ff7a 	bl	8004f88 <memcpy>
 8004094:	7aeb      	ldrb	r3, [r5, #11]
 8004096:	e7e9      	b.n	800406c <hci_send_req+0x8c>
 8004098:	2000078c 	.word	0x2000078c
 800409c:	20000164 	.word	0x20000164
 80040a0:	20000790 	.word	0x20000790
 80040a4:	20000784 	.word	0x20000784

080040a8 <TlEvtReceived>:
 80040a8:	b508      	push	{r3, lr}
 80040aa:	7a43      	ldrb	r3, [r0, #9]
 80040ac:	3b0e      	subs	r3, #14
 80040ae:	2b01      	cmp	r3, #1
 80040b0:	4601      	mov	r1, r0
 80040b2:	d806      	bhi.n	80040c2 <TlEvtReceived+0x1a>
 80040b4:	4807      	ldr	r0, [pc, #28]	; (80040d4 <TlEvtReceived+0x2c>)
 80040b6:	f000 fa2c 	bl	8004512 <LST_insert_tail>
 80040ba:	2000      	movs	r0, #0
 80040bc:	f000 fbba 	bl	8004834 <hci_cmd_resp_release>
 80040c0:	bd08      	pop	{r3, pc}
 80040c2:	4805      	ldr	r0, [pc, #20]	; (80040d8 <TlEvtReceived+0x30>)
 80040c4:	f000 fa25 	bl	8004512 <LST_insert_tail>
 80040c8:	e8bd 4008 	ldmia.w	sp!, {r3, lr}
 80040cc:	4802      	ldr	r0, [pc, #8]	; (80040d8 <TlEvtReceived+0x30>)
 80040ce:	f000 bbad 	b.w	800482c <hci_notify_asynch_evt>
 80040d2:	bf00      	nop
 80040d4:	20000784 	.word	0x20000784
 80040d8:	20000168 	.word	0x20000168

080040dc <hci_register_io_bus>:
 80040dc:	4b02      	ldr	r3, [pc, #8]	; (80040e8 <hci_register_io_bus+0xc>)
 80040de:	6003      	str	r3, [r0, #0]
 80040e0:	4b02      	ldr	r3, [pc, #8]	; (80040ec <hci_register_io_bus+0x10>)
 80040e2:	6103      	str	r3, [r0, #16]
 80040e4:	4770      	bx	lr
 80040e6:	bf00      	nop
 80040e8:	080042e5 	.word	0x080042e5
 80040ec:	0800432d 	.word	0x0800432d

080040f0 <TlUserEvtReceived>:
 80040f0:	b508      	push	{r3, lr}
 80040f2:	4601      	mov	r1, r0
 80040f4:	4803      	ldr	r0, [pc, #12]	; (8004104 <TlUserEvtReceived+0x14>)
 80040f6:	f000 fa0c 	bl	8004512 <LST_insert_tail>
 80040fa:	e8bd 4008 	ldmia.w	sp!, {r3, lr}
 80040fe:	4801      	ldr	r0, [pc, #4]	; (8004104 <TlUserEvtReceived+0x14>)
 8004100:	f7fc bbe7 	b.w	80008d2 <shci_notify_asynch_evt>
 8004104:	20000178 	.word	0x20000178

08004108 <Cmd_SetStatus.constprop.0>:
 8004108:	4b03      	ldr	r3, [pc, #12]	; (8004118 <Cmd_SetStatus.constprop.0+0x10>)
 800410a:	2001      	movs	r0, #1
 800410c:	7218      	strb	r0, [r3, #8]
 800410e:	4b03      	ldr	r3, [pc, #12]	; (800411c <Cmd_SetStatus.constprop.0+0x14>)
 8004110:	681b      	ldr	r3, [r3, #0]
 8004112:	b103      	cbz	r3, 8004116 <Cmd_SetStatus.constprop.0+0xe>
 8004114:	4718      	bx	r3
 8004116:	4770      	bx	lr
 8004118:	20000178 	.word	0x20000178
 800411c:	200007b0 	.word	0x200007b0

08004120 <shci_init>:
 8004120:	b57f      	push	{r0, r1, r2, r3, r4, r5, r6, lr}
 8004122:	4d0f      	ldr	r5, [pc, #60]	; (8004160 <shci_init+0x40>)
 8004124:	4b0f      	ldr	r3, [pc, #60]	; (8004164 <shci_init+0x44>)
 8004126:	684a      	ldr	r2, [r1, #4]
 8004128:	61e8      	str	r0, [r5, #28]
 800412a:	460c      	mov	r4, r1
 800412c:	4628      	mov	r0, r5
 800412e:	601a      	str	r2, [r3, #0]
 8004130:	f000 f890 	bl	8004254 <shci_register_io_bus>
 8004134:	6826      	ldr	r6, [r4, #0]
 8004136:	4c0c      	ldr	r4, [pc, #48]	; (8004168 <shci_init+0x48>)
 8004138:	4620      	mov	r0, r4
 800413a:	60e6      	str	r6, [r4, #12]
 800413c:	f000 f9d0 	bl	80044e0 <LST_init_head>
 8004140:	f7ff ffe2 	bl	8004108 <Cmd_SetStatus.constprop.0>
 8004144:	2301      	movs	r3, #1
 8004146:	7423      	strb	r3, [r4, #16]
 8004148:	682b      	ldr	r3, [r5, #0]
 800414a:	b133      	cbz	r3, 800415a <shci_init+0x3a>
 800414c:	4a07      	ldr	r2, [pc, #28]	; (800416c <shci_init+0x4c>)
 800414e:	9201      	str	r2, [sp, #4]
 8004150:	4a07      	ldr	r2, [pc, #28]	; (8004170 <shci_init+0x50>)
 8004152:	9603      	str	r6, [sp, #12]
 8004154:	9202      	str	r2, [sp, #8]
 8004156:	a801      	add	r0, sp, #4
 8004158:	4798      	blx	r3
 800415a:	b004      	add	sp, #16
 800415c:	bd70      	pop	{r4, r5, r6, pc}
 800415e:	bf00      	nop
 8004160:	200007b4 	.word	0x200007b4
 8004164:	200007b0 	.word	0x200007b0
 8004168:	20000178 	.word	0x20000178
 800416c:	08004249 	.word	0x08004249
 8004170:	080040f1 	.word	0x080040f1

08004174 <shci_user_evt_proc>:
 8004174:	b51f      	push	{r0, r1, r2, r3, r4, lr}
 8004176:	4c17      	ldr	r4, [pc, #92]	; (80041d4 <shci_user_evt_proc+0x60>)
 8004178:	4620      	mov	r0, r4
 800417a:	f000 f9b4 	bl	80044e6 <LST_is_empty>
 800417e:	b9b0      	cbnz	r0, 80041ae <shci_user_evt_proc+0x3a>
 8004180:	7c23      	ldrb	r3, [r4, #16]
 8004182:	b1a3      	cbz	r3, 80041ae <shci_user_evt_proc+0x3a>
 8004184:	a901      	add	r1, sp, #4
 8004186:	4620      	mov	r0, r4
 8004188:	f000 f9da 	bl	8004540 <LST_remove_head>
 800418c:	4b12      	ldr	r3, [pc, #72]	; (80041d8 <shci_user_evt_proc+0x64>)
 800418e:	69da      	ldr	r2, [r3, #28]
 8004190:	2301      	movs	r3, #1
 8004192:	b1ba      	cbz	r2, 80041c4 <shci_user_evt_proc+0x50>
 8004194:	9901      	ldr	r1, [sp, #4]
 8004196:	f88d 3008 	strb.w	r3, [sp, #8]
 800419a:	9103      	str	r1, [sp, #12]
 800419c:	a802      	add	r0, sp, #8
 800419e:	4790      	blx	r2
 80041a0:	f89d 3008 	ldrb.w	r3, [sp, #8]
 80041a4:	7423      	strb	r3, [r4, #16]
 80041a6:	b17b      	cbz	r3, 80041c8 <shci_user_evt_proc+0x54>
 80041a8:	9801      	ldr	r0, [sp, #4]
 80041aa:	f000 f957 	bl	800445c <TL_MM_EvtDone>
 80041ae:	4809      	ldr	r0, [pc, #36]	; (80041d4 <shci_user_evt_proc+0x60>)
 80041b0:	f000 f999 	bl	80044e6 <LST_is_empty>
 80041b4:	b920      	cbnz	r0, 80041c0 <shci_user_evt_proc+0x4c>
 80041b6:	7c23      	ldrb	r3, [r4, #16]
 80041b8:	b113      	cbz	r3, 80041c0 <shci_user_evt_proc+0x4c>
 80041ba:	4806      	ldr	r0, [pc, #24]	; (80041d4 <shci_user_evt_proc+0x60>)
 80041bc:	f7fc fb89 	bl	80008d2 <shci_notify_asynch_evt>
 80041c0:	b004      	add	sp, #16
 80041c2:	bd10      	pop	{r4, pc}
 80041c4:	7423      	strb	r3, [r4, #16]
 80041c6:	e7ef      	b.n	80041a8 <shci_user_evt_proc+0x34>
 80041c8:	9901      	ldr	r1, [sp, #4]
 80041ca:	4620      	mov	r0, r4
 80041cc:	f000 f995 	bl	80044fa <LST_insert_head>
 80041d0:	e7ed      	b.n	80041ae <shci_user_evt_proc+0x3a>
 80041d2:	bf00      	nop
 80041d4:	20000178 	.word	0x20000178
 80041d8:	200007b4 	.word	0x200007b4

080041dc <shci_send>:
 80041dc:	e92d 41f3 	stmdb	sp!, {r0, r1, r4, r5, r6, r7, r8, lr}
 80041e0:	461d      	mov	r5, r3
 80041e2:	4b16      	ldr	r3, [pc, #88]	; (800423c <shci_send+0x60>)
 80041e4:	681b      	ldr	r3, [r3, #0]
 80041e6:	460c      	mov	r4, r1
 80041e8:	4607      	mov	r7, r0
 80041ea:	4611      	mov	r1, r2
 80041ec:	b11b      	cbz	r3, 80041f6 <shci_send+0x1a>
 80041ee:	2000      	movs	r0, #0
 80041f0:	9201      	str	r2, [sp, #4]
 80041f2:	4798      	blx	r3
 80041f4:	9901      	ldr	r1, [sp, #4]
 80041f6:	4e12      	ldr	r6, [pc, #72]	; (8004240 <shci_send+0x64>)
 80041f8:	68f0      	ldr	r0, [r6, #12]
 80041fa:	4622      	mov	r2, r4
 80041fc:	f04f 0800 	mov.w	r8, #0
 8004200:	f8a0 7009 	strh.w	r7, [r0, #9]
 8004204:	72c4      	strb	r4, [r0, #11]
 8004206:	300c      	adds	r0, #12
 8004208:	f886 8008 	strb.w	r8, [r6, #8]
 800420c:	f000 febc 	bl	8004f88 <memcpy>
 8004210:	4b0c      	ldr	r3, [pc, #48]	; (8004244 <shci_send+0x68>)
 8004212:	4641      	mov	r1, r8
 8004214:	691b      	ldr	r3, [r3, #16]
 8004216:	4640      	mov	r0, r8
 8004218:	4798      	blx	r3
 800421a:	f248 00e8 	movw	r0, #33000	; 0x80e8
 800421e:	f7fc fb5f 	bl	80008e0 <shci_cmd_resp_wait>
 8004222:	68f1      	ldr	r1, [r6, #12]
 8004224:	788a      	ldrb	r2, [r1, #2]
 8004226:	f105 0008 	add.w	r0, r5, #8
 800422a:	3203      	adds	r2, #3
 800422c:	f000 feac 	bl	8004f88 <memcpy>
 8004230:	b002      	add	sp, #8
 8004232:	e8bd 41f0 	ldmia.w	sp!, {r4, r5, r6, r7, r8, lr}
 8004236:	f7ff bf67 	b.w	8004108 <Cmd_SetStatus.constprop.0>
 800423a:	bf00      	nop
 800423c:	200007b0 	.word	0x200007b0
 8004240:	20000178 	.word	0x20000178
 8004244:	200007b4 	.word	0x200007b4

08004248 <TlCmdEvtReceived>:
 8004248:	b508      	push	{r3, lr}
 800424a:	2000      	movs	r0, #0
 800424c:	f7fc fb45 	bl	80008da <shci_cmd_resp_release>
 8004250:	bd08      	pop	{r3, pc}
	...

08004254 <shci_register_io_bus>:
 8004254:	4b02      	ldr	r3, [pc, #8]	; (8004260 <shci_register_io_bus+0xc>)
 8004256:	6003      	str	r3, [r0, #0]
 8004258:	4b02      	ldr	r3, [pc, #8]	; (8004264 <shci_register_io_bus+0x10>)
 800425a:	6103      	str	r3, [r0, #16]
 800425c:	4770      	bx	lr
 800425e:	bf00      	nop
 8004260:	08004381 	.word	0x08004381
 8004264:	080043bd 	.word	0x080043bd

08004268 <SendFreeBuf>:
 8004268:	b537      	push	{r0, r1, r2, r4, r5, lr}
 800426a:	4c09      	ldr	r4, [pc, #36]	; (8004290 <SendFreeBuf+0x28>)
 800426c:	4d09      	ldr	r5, [pc, #36]	; (8004294 <SendFreeBuf+0x2c>)
 800426e:	4808      	ldr	r0, [pc, #32]	; (8004290 <SendFreeBuf+0x28>)
 8004270:	f000 f939 	bl	80044e6 <LST_is_empty>
 8004274:	b108      	cbz	r0, 800427a <SendFreeBuf+0x12>
 8004276:	b003      	add	sp, #12
 8004278:	bd30      	pop	{r4, r5, pc}
 800427a:	a901      	add	r1, sp, #4
 800427c:	4620      	mov	r0, r4
 800427e:	f000 f95f 	bl	8004540 <LST_remove_head>
 8004282:	692b      	ldr	r3, [r5, #16]
 8004284:	9901      	ldr	r1, [sp, #4]
 8004286:	6918      	ldr	r0, [r3, #16]
 8004288:	f000 f943 	bl	8004512 <LST_insert_tail>
 800428c:	e7ef      	b.n	800426e <SendFreeBuf+0x6>
 800428e:	bf00      	nop
 8004290:	200007dc 	.word	0x200007dc
 8004294:	20030000 	.word	0x20030000

08004298 <TL_Enable>:
 8004298:	f000 bc24 	b.w	8004ae4 <HW_IPCC_Enable>

0800429c <TL_Init>:
 800429c:	4b0f      	ldr	r3, [pc, #60]	; (80042dc <TL_Init+0x40>)
 800429e:	4a10      	ldr	r2, [pc, #64]	; (80042e0 <TL_Init+0x44>)
 80042a0:	f103 0120 	add.w	r1, r3, #32
 80042a4:	6013      	str	r3, [r2, #0]
 80042a6:	6051      	str	r1, [r2, #4]
 80042a8:	f103 0130 	add.w	r1, r3, #48	; 0x30
 80042ac:	6091      	str	r1, [r2, #8]
 80042ae:	f103 013c 	add.w	r1, r3, #60	; 0x3c
 80042b2:	6211      	str	r1, [r2, #32]
 80042b4:	f103 0144 	add.w	r1, r3, #68	; 0x44
 80042b8:	6251      	str	r1, [r2, #36]	; 0x24
 80042ba:	f103 014c 	add.w	r1, r3, #76	; 0x4c
 80042be:	60d1      	str	r1, [r2, #12]
 80042c0:	f103 0154 	add.w	r1, r3, #84	; 0x54
 80042c4:	6111      	str	r1, [r2, #16]
 80042c6:	f103 0170 	add.w	r1, r3, #112	; 0x70
 80042ca:	6151      	str	r1, [r2, #20]
 80042cc:	f103 0174 	add.w	r1, r3, #116	; 0x74
 80042d0:	3380      	adds	r3, #128	; 0x80
 80042d2:	6191      	str	r1, [r2, #24]
 80042d4:	61d3      	str	r3, [r2, #28]
 80042d6:	f000 bc2d 	b.w	8004b34 <HW_IPCC_Init>
 80042da:	bf00      	nop
 80042dc:	20030028 	.word	0x20030028
 80042e0:	20030000 	.word	0x20030000

080042e4 <TL_BLE_Init>:
 80042e4:	b538      	push	{r3, r4, r5, lr}
 80042e6:	4d0c      	ldr	r5, [pc, #48]	; (8004318 <TL_BLE_Init+0x34>)
 80042e8:	4604      	mov	r4, r0
 80042ea:	4628      	mov	r0, r5
 80042ec:	f000 f8f8 	bl	80044e0 <LST_init_head>
 80042f0:	4b0a      	ldr	r3, [pc, #40]	; (800431c <TL_BLE_Init+0x38>)
 80042f2:	68a2      	ldr	r2, [r4, #8]
 80042f4:	685b      	ldr	r3, [r3, #4]
 80042f6:	601a      	str	r2, [r3, #0]
 80042f8:	68e2      	ldr	r2, [r4, #12]
 80042fa:	60da      	str	r2, [r3, #12]
 80042fc:	4a08      	ldr	r2, [pc, #32]	; (8004320 <TL_BLE_Init+0x3c>)
 80042fe:	e9c3 2501 	strd	r2, r5, [r3, #4]
 8004302:	f000 fc37 	bl	8004b74 <HW_IPCC_BLE_Init>
 8004306:	4b07      	ldr	r3, [pc, #28]	; (8004324 <TL_BLE_Init+0x40>)
 8004308:	6822      	ldr	r2, [r4, #0]
 800430a:	601a      	str	r2, [r3, #0]
 800430c:	4b06      	ldr	r3, [pc, #24]	; (8004328 <TL_BLE_Init+0x44>)
 800430e:	6862      	ldr	r2, [r4, #4]
 8004310:	601a      	str	r2, [r3, #0]
 8004312:	2000      	movs	r0, #0
 8004314:	bd38      	pop	{r3, r4, r5, pc}
 8004316:	bf00      	nop
 8004318:	200300b4 	.word	0x200300b4
 800431c:	20030000 	.word	0x20030000
 8004320:	20030a48 	.word	0x20030a48
 8004324:	200007d8 	.word	0x200007d8
 8004328:	200007d4 	.word	0x200007d4

0800432c <TL_BLE_SendCmd>:
 800432c:	b508      	push	{r3, lr}
 800432e:	4b05      	ldr	r3, [pc, #20]	; (8004344 <TL_BLE_SendCmd+0x18>)
 8004330:	685a      	ldr	r2, [r3, #4]
 8004332:	685b      	ldr	r3, [r3, #4]
 8004334:	6812      	ldr	r2, [r2, #0]
 8004336:	2101      	movs	r1, #1
 8004338:	7211      	strb	r1, [r2, #8]
 800433a:	f000 fc23 	bl	8004b84 <HW_IPCC_BLE_SendCmd>
 800433e:	2000      	movs	r0, #0
 8004340:	bd08      	pop	{r3, pc}
 8004342:	bf00      	nop
 8004344:	20030000 	.word	0x20030000

08004348 <HW_IPCC_BLE_RxEvtNot>:
 8004348:	b537      	push	{r0, r1, r2, r4, r5, lr}
 800434a:	4c08      	ldr	r4, [pc, #32]	; (800436c <HW_IPCC_BLE_RxEvtNot+0x24>)
 800434c:	4d08      	ldr	r5, [pc, #32]	; (8004370 <HW_IPCC_BLE_RxEvtNot+0x28>)
 800434e:	4807      	ldr	r0, [pc, #28]	; (800436c <HW_IPCC_BLE_RxEvtNot+0x24>)
 8004350:	f000 f8c9 	bl	80044e6 <LST_is_empty>
 8004354:	b108      	cbz	r0, 800435a <HW_IPCC_BLE_RxEvtNot+0x12>
 8004356:	b003      	add	sp, #12
 8004358:	bd30      	pop	{r4, r5, pc}
 800435a:	4620      	mov	r0, r4
 800435c:	a901      	add	r1, sp, #4
 800435e:	f000 f8ef 	bl	8004540 <LST_remove_head>
 8004362:	682b      	ldr	r3, [r5, #0]
 8004364:	9801      	ldr	r0, [sp, #4]
 8004366:	4798      	blx	r3
 8004368:	e7f1      	b.n	800434e <HW_IPCC_BLE_RxEvtNot+0x6>
 800436a:	bf00      	nop
 800436c:	200300b4 	.word	0x200300b4
 8004370:	200007d8 	.word	0x200007d8

08004374 <HW_IPCC_BLE_AclDataAckNot>:
 8004374:	4b01      	ldr	r3, [pc, #4]	; (800437c <HW_IPCC_BLE_AclDataAckNot+0x8>)
 8004376:	681b      	ldr	r3, [r3, #0]
 8004378:	4718      	bx	r3
 800437a:	bf00      	nop
 800437c:	200007d4 	.word	0x200007d4

08004380 <TL_SYS_Init>:
 8004380:	b538      	push	{r3, r4, r5, lr}
 8004382:	4d0a      	ldr	r5, [pc, #40]	; (80043ac <TL_SYS_Init+0x2c>)
 8004384:	4604      	mov	r4, r0
 8004386:	4628      	mov	r0, r5
 8004388:	f000 f8aa 	bl	80044e0 <LST_init_head>
 800438c:	4b08      	ldr	r3, [pc, #32]	; (80043b0 <TL_SYS_Init+0x30>)
 800438e:	68a2      	ldr	r2, [r4, #8]
 8004390:	68db      	ldr	r3, [r3, #12]
 8004392:	e9c3 2500 	strd	r2, r5, [r3]
 8004396:	f000 fbfd 	bl	8004b94 <HW_IPCC_SYS_Init>
 800439a:	4b06      	ldr	r3, [pc, #24]	; (80043b4 <TL_SYS_Init+0x34>)
 800439c:	6822      	ldr	r2, [r4, #0]
 800439e:	601a      	str	r2, [r3, #0]
 80043a0:	4b05      	ldr	r3, [pc, #20]	; (80043b8 <TL_SYS_Init+0x38>)
 80043a2:	6862      	ldr	r2, [r4, #4]
 80043a4:	601a      	str	r2, [r3, #0]
 80043a6:	2000      	movs	r0, #0
 80043a8:	bd38      	pop	{r3, r4, r5, pc}
 80043aa:	bf00      	nop
 80043ac:	200300bc 	.word	0x200300bc
 80043b0:	20030000 	.word	0x20030000
 80043b4:	200007e4 	.word	0x200007e4
 80043b8:	200007e8 	.word	0x200007e8

080043bc <TL_SYS_SendCmd>:
 80043bc:	b508      	push	{r3, lr}
 80043be:	4b05      	ldr	r3, [pc, #20]	; (80043d4 <TL_SYS_SendCmd+0x18>)
 80043c0:	68da      	ldr	r2, [r3, #12]
 80043c2:	68db      	ldr	r3, [r3, #12]
 80043c4:	6812      	ldr	r2, [r2, #0]
 80043c6:	2110      	movs	r1, #16
 80043c8:	7211      	strb	r1, [r2, #8]
 80043ca:	f000 fbeb 	bl	8004ba4 <HW_IPCC_SYS_SendCmd>
 80043ce:	2000      	movs	r0, #0
 80043d0:	bd08      	pop	{r3, pc}
 80043d2:	bf00      	nop
 80043d4:	20030000 	.word	0x20030000

080043d8 <HW_IPCC_SYS_CmdEvtNot>:
 80043d8:	4b03      	ldr	r3, [pc, #12]	; (80043e8 <HW_IPCC_SYS_CmdEvtNot+0x10>)
 80043da:	68da      	ldr	r2, [r3, #12]
 80043dc:	68da      	ldr	r2, [r3, #12]
 80043de:	4b03      	ldr	r3, [pc, #12]	; (80043ec <HW_IPCC_SYS_CmdEvtNot+0x14>)
 80043e0:	6810      	ldr	r0, [r2, #0]
 80043e2:	681b      	ldr	r3, [r3, #0]
 80043e4:	4718      	bx	r3
 80043e6:	bf00      	nop
 80043e8:	20030000 	.word	0x20030000
 80043ec:	200007e4 	.word	0x200007e4

080043f0 <HW_IPCC_SYS_EvtNot>:
 80043f0:	b537      	push	{r0, r1, r2, r4, r5, lr}
 80043f2:	4c08      	ldr	r4, [pc, #32]	; (8004414 <HW_IPCC_SYS_EvtNot+0x24>)
 80043f4:	4d08      	ldr	r5, [pc, #32]	; (8004418 <HW_IPCC_SYS_EvtNot+0x28>)
 80043f6:	4807      	ldr	r0, [pc, #28]	; (8004414 <HW_IPCC_SYS_EvtNot+0x24>)
 80043f8:	f000 f875 	bl	80044e6 <LST_is_empty>
 80043fc:	b108      	cbz	r0, 8004402 <HW_IPCC_SYS_EvtNot+0x12>
 80043fe:	b003      	add	sp, #12
 8004400:	bd30      	pop	{r4, r5, pc}
 8004402:	4620      	mov	r0, r4
 8004404:	a901      	add	r1, sp, #4
 8004406:	f000 f89b 	bl	8004540 <LST_remove_head>
 800440a:	682b      	ldr	r3, [r5, #0]
 800440c:	9801      	ldr	r0, [sp, #4]
 800440e:	4798      	blx	r3
 8004410:	e7f1      	b.n	80043f6 <HW_IPCC_SYS_EvtNot+0x6>
 8004412:	bf00      	nop
 8004414:	200300bc 	.word	0x200300bc
 8004418:	200007e8 	.word	0x200007e8

0800441c <TL_MM_Init>:
 800441c:	b538      	push	{r3, r4, r5, lr}
 800441e:	4d0c      	ldr	r5, [pc, #48]	; (8004450 <TL_MM_Init+0x34>)
 8004420:	4604      	mov	r4, r0
 8004422:	4628      	mov	r0, r5
 8004424:	f000 f85c 	bl	80044e0 <LST_init_head>
 8004428:	480a      	ldr	r0, [pc, #40]	; (8004454 <TL_MM_Init+0x38>)
 800442a:	f000 f859 	bl	80044e0 <LST_init_head>
 800442e:	4b0a      	ldr	r3, [pc, #40]	; (8004458 <TL_MM_Init+0x3c>)
 8004430:	68a2      	ldr	r2, [r4, #8]
 8004432:	691b      	ldr	r3, [r3, #16]
 8004434:	609a      	str	r2, [r3, #8]
 8004436:	68e2      	ldr	r2, [r4, #12]
 8004438:	e9c3 2503 	strd	r2, r5, [r3, #12]
 800443c:	6822      	ldr	r2, [r4, #0]
 800443e:	601a      	str	r2, [r3, #0]
 8004440:	6862      	ldr	r2, [r4, #4]
 8004442:	605a      	str	r2, [r3, #4]
 8004444:	6922      	ldr	r2, [r4, #16]
 8004446:	615a      	str	r2, [r3, #20]
 8004448:	6962      	ldr	r2, [r4, #20]
 800444a:	619a      	str	r2, [r3, #24]
 800444c:	bd38      	pop	{r3, r4, r5, pc}
 800444e:	bf00      	nop
 8004450:	200300c4 	.word	0x200300c4
 8004454:	200007dc 	.word	0x200007dc
 8004458:	20030000 	.word	0x20030000

0800445c <TL_MM_EvtDone>:
 800445c:	b508      	push	{r3, lr}
 800445e:	4601      	mov	r1, r0
 8004460:	4803      	ldr	r0, [pc, #12]	; (8004470 <TL_MM_EvtDone+0x14>)
 8004462:	f000 f856 	bl	8004512 <LST_insert_tail>
 8004466:	e8bd 4008 	ldmia.w	sp!, {r3, lr}
 800446a:	4802      	ldr	r0, [pc, #8]	; (8004474 <TL_MM_EvtDone+0x18>)
 800446c:	f000 bbd8 	b.w	8004c20 <HW_IPCC_MM_SendFreeBuf>
 8004470:	200007dc 	.word	0x200007dc
 8004474:	08004269 	.word	0x08004269

08004478 <TL_TRACES_Init>:
 8004478:	b510      	push	{r4, lr}
 800447a:	4c05      	ldr	r4, [pc, #20]	; (8004490 <TL_TRACES_Init+0x18>)
 800447c:	4620      	mov	r0, r4
 800447e:	f000 f82f 	bl	80044e0 <LST_init_head>
 8004482:	4b04      	ldr	r3, [pc, #16]	; (8004494 <TL_TRACES_Init+0x1c>)
 8004484:	695b      	ldr	r3, [r3, #20]
 8004486:	601c      	str	r4, [r3, #0]
 8004488:	e8bd 4010 	ldmia.w	sp!, {r4, lr}
 800448c:	f000 bbde 	b.w	8004c4c <HW_IPCC_TRACES_Init>
 8004490:	200300cc 	.word	0x200300cc
 8004494:	20030000 	.word	0x20030000

08004498 <TL_TRACES_EvtReceived>:
 8004498:	4770      	bx	lr
	...

0800449c <HW_IPCC_TRACES_EvtNot>:
 800449c:	b513      	push	{r0, r1, r4, lr}
 800449e:	4c07      	ldr	r4, [pc, #28]	; (80044bc <HW_IPCC_TRACES_EvtNot+0x20>)
 80044a0:	4806      	ldr	r0, [pc, #24]	; (80044bc <HW_IPCC_TRACES_EvtNot+0x20>)
 80044a2:	f000 f820 	bl	80044e6 <LST_is_empty>
 80044a6:	b108      	cbz	r0, 80044ac <HW_IPCC_TRACES_EvtNot+0x10>
 80044a8:	b002      	add	sp, #8
 80044aa:	bd10      	pop	{r4, pc}
 80044ac:	4620      	mov	r0, r4
 80044ae:	a901      	add	r1, sp, #4
 80044b0:	f000 f846 	bl	8004540 <LST_remove_head>
 80044b4:	9801      	ldr	r0, [sp, #4]
 80044b6:	f7ff ffef 	bl	8004498 <TL_TRACES_EvtReceived>
 80044ba:	e7f1      	b.n	80044a0 <HW_IPCC_TRACES_EvtNot+0x4>
 80044bc:	200300cc 	.word	0x200300cc

080044c0 <OTP_Read>:
 80044c0:	4603      	mov	r3, r0
 80044c2:	4a05      	ldr	r2, [pc, #20]	; (80044d8 <OTP_Read+0x18>)
 80044c4:	4805      	ldr	r0, [pc, #20]	; (80044dc <OTP_Read+0x1c>)
 80044c6:	79c1      	ldrb	r1, [r0, #7]
 80044c8:	4299      	cmp	r1, r3
 80044ca:	d002      	beq.n	80044d2 <OTP_Read+0x12>
 80044cc:	4290      	cmp	r0, r2
 80044ce:	d101      	bne.n	80044d4 <OTP_Read+0x14>
 80044d0:	2000      	movs	r0, #0
 80044d2:	4770      	bx	lr
 80044d4:	3808      	subs	r0, #8
 80044d6:	e7f6      	b.n	80044c6 <OTP_Read+0x6>
 80044d8:	1fff7000 	.word	0x1fff7000
 80044dc:	1fff73f8 	.word	0x1fff73f8

080044e0 <LST_init_head>:
 80044e0:	6000      	str	r0, [r0, #0]
 80044e2:	6040      	str	r0, [r0, #4]
 80044e4:	4770      	bx	lr

080044e6 <LST_is_empty>:
 80044e6:	f3ef 8310 	mrs	r3, PRIMASK
 80044ea:	b672      	cpsid	i
 80044ec:	6802      	ldr	r2, [r0, #0]
 80044ee:	1a82      	subs	r2, r0, r2
 80044f0:	4250      	negs	r0, r2
 80044f2:	4150      	adcs	r0, r2
 80044f4:	f383 8810 	msr	PRIMASK, r3
 80044f8:	4770      	bx	lr

080044fa <LST_insert_head>:
 80044fa:	f3ef 8310 	mrs	r3, PRIMASK
 80044fe:	b672      	cpsid	i
 8004500:	6802      	ldr	r2, [r0, #0]
 8004502:	600a      	str	r2, [r1, #0]
 8004504:	6048      	str	r0, [r1, #4]
 8004506:	6001      	str	r1, [r0, #0]
 8004508:	680a      	ldr	r2, [r1, #0]
 800450a:	6051      	str	r1, [r2, #4]
 800450c:	f383 8810 	msr	PRIMASK, r3
 8004510:	4770      	bx	lr

08004512 <LST_insert_tail>:
 8004512:	f3ef 8310 	mrs	r3, PRIMASK
 8004516:	b672      	cpsid	i
 8004518:	6008      	str	r0, [r1, #0]
 800451a:	6842      	ldr	r2, [r0, #4]
 800451c:	604a      	str	r2, [r1, #4]
 800451e:	6041      	str	r1, [r0, #4]
 8004520:	684a      	ldr	r2, [r1, #4]
 8004522:	6011      	str	r1, [r2, #0]
 8004524:	f383 8810 	msr	PRIMASK, r3
 8004528:	4770      	bx	lr

0800452a <LST_remove_node>:
 800452a:	f3ef 8210 	mrs	r2, PRIMASK
 800452e:	b672      	cpsid	i
 8004530:	6843      	ldr	r3, [r0, #4]
 8004532:	6801      	ldr	r1, [r0, #0]
 8004534:	6019      	str	r1, [r3, #0]
 8004536:	6801      	ldr	r1, [r0, #0]
 8004538:	604b      	str	r3, [r1, #4]
 800453a:	f382 8810 	msr	PRIMASK, r2
 800453e:	4770      	bx	lr

08004540 <LST_remove_head>:
 8004540:	b510      	push	{r4, lr}
 8004542:	f3ef 8410 	mrs	r4, PRIMASK
 8004546:	b672      	cpsid	i
 8004548:	6803      	ldr	r3, [r0, #0]
 800454a:	600b      	str	r3, [r1, #0]
 800454c:	6800      	ldr	r0, [r0, #0]
 800454e:	f7ff ffec 	bl	800452a <LST_remove_node>
 8004552:	f384 8810 	msr	PRIMASK, r4
 8004556:	bd10      	pop	{r4, pc}

08004558 <Adv_Cancel>:
 8004558:	b510      	push	{r4, lr}
 800455a:	4c05      	ldr	r4, [pc, #20]	; (8004570 <Adv_Cancel+0x18>)
 800455c:	f894 3080 	ldrb.w	r3, [r4, #128]	; 0x80
 8004560:	2b05      	cmp	r3, #5
 8004562:	d004      	beq.n	800456e <Adv_Cancel+0x16>
 8004564:	f7ff f896 	bl	8003694 <aci_gap_set_non_discoverable>
 8004568:	2300      	movs	r3, #0
 800456a:	f884 3080 	strb.w	r3, [r4, #128]	; 0x80
 800456e:	bd10      	pop	{r4, pc}
 8004570:	2000018c 	.word	0x2000018c

08004574 <BLE_UserEvtRx>:
 8004574:	b510      	push	{r4, lr}
 8004576:	4604      	mov	r4, r0
 8004578:	6840      	ldr	r0, [r0, #4]
 800457a:	3008      	adds	r0, #8
 800457c:	f7ff fc44 	bl	8003e08 <SVCCTL_UserEvtRx>
 8004580:	3800      	subs	r0, #0
 8004582:	bf18      	it	ne
 8004584:	2001      	movne	r0, #1
 8004586:	7020      	strb	r0, [r4, #0]
 8004588:	bd10      	pop	{r4, pc}

0800458a <BLE_StatusNot>:
 800458a:	b110      	cbz	r0, 8004592 <BLE_StatusNot+0x8>
 800458c:	2801      	cmp	r0, #1
 800458e:	d003      	beq.n	8004598 <BLE_StatusNot+0xe>
 8004590:	4770      	bx	lr
 8004592:	2007      	movs	r0, #7
 8004594:	f000 bbbc 	b.w	8004d10 <UTIL_SEQ_PauseTask>
 8004598:	2007      	movs	r0, #7
 800459a:	f000 bbc7 	b.w	8004d2c <UTIL_SEQ_ResumeTask>
	...

080045a0 <Adv_Request.constprop.0>:
 80045a0:	b500      	push	{lr}
 80045a2:	4b0c      	ldr	r3, [pc, #48]	; (80045d4 <Adv_Request.constprop.0+0x34>)
 80045a4:	b089      	sub	sp, #36	; 0x24
 80045a6:	2201      	movs	r2, #1
 80045a8:	f883 2080 	strb.w	r2, [r3, #128]	; 0x80
 80045ac:	2300      	movs	r3, #0
 80045ae:	e9cd 3305 	strd	r3, r3, [sp, #20]
 80045b2:	e9cd 3303 	strd	r3, r3, [sp, #12]
 80045b6:	e9cd 3301 	strd	r3, r3, [sp, #4]
 80045ba:	9300      	str	r3, [sp, #0]
 80045bc:	22a0      	movs	r2, #160	; 0xa0
 80045be:	2180      	movs	r1, #128	; 0x80
 80045c0:	4618      	mov	r0, r3
 80045c2:	f7ff f885 	bl	80036d0 <aci_gap_set_discoverable>
 80045c6:	4904      	ldr	r1, [pc, #16]	; (80045d8 <Adv_Request.constprop.0+0x38>)
 80045c8:	2008      	movs	r0, #8
 80045ca:	b009      	add	sp, #36	; 0x24
 80045cc:	f85d eb04 	ldr.w	lr, [sp], #4
 80045d0:	f7ff b9a0 	b.w	8003914 <aci_gap_update_adv_data>
 80045d4:	2000018c 	.word	0x2000018c
 80045d8:	20000030 	.word	0x20000030

080045dc <APP_BLE_Init>:
 80045dc:	b570      	push	{r4, r5, r6, lr}
 80045de:	4a5e      	ldr	r2, [pc, #376]	; (8004758 <APP_BLE_Init+0x17c>)
 80045e0:	b098      	sub	sp, #96	; 0x60
 80045e2:	2100      	movs	r1, #0
 80045e4:	2004      	movs	r0, #4
 80045e6:	f000 fc95 	bl	8004f14 <UTIL_SEQ_RegTask>
 80045ea:	2100      	movs	r1, #0
 80045ec:	2004      	movs	r0, #4
 80045ee:	f000 fb79 	bl	8004ce4 <UTIL_SEQ_SetTask>
 80045f2:	4b5a      	ldr	r3, [pc, #360]	; (800475c <APP_BLE_Init+0x180>)
 80045f4:	aa0b      	add	r2, sp, #44	; 0x2c
 80045f6:	f103 0630 	add.w	r6, r3, #48	; 0x30
 80045fa:	4615      	mov	r5, r2
 80045fc:	6818      	ldr	r0, [r3, #0]
 80045fe:	6859      	ldr	r1, [r3, #4]
 8004600:	4614      	mov	r4, r2
 8004602:	c403      	stmia	r4!, {r0, r1}
 8004604:	3308      	adds	r3, #8
 8004606:	42b3      	cmp	r3, r6
 8004608:	4622      	mov	r2, r4
 800460a:	d1f7      	bne.n	80045fc <APP_BLE_Init+0x20>
 800460c:	781b      	ldrb	r3, [r3, #0]
 800460e:	7023      	strb	r3, [r4, #0]
 8004610:	4b53      	ldr	r3, [pc, #332]	; (8004760 <APP_BLE_Init+0x184>)
 8004612:	4854      	ldr	r0, [pc, #336]	; (8004764 <APP_BLE_Init+0x188>)
 8004614:	9309      	str	r3, [sp, #36]	; 0x24
 8004616:	ac09      	add	r4, sp, #36	; 0x24
 8004618:	4b53      	ldr	r3, [pc, #332]	; (8004768 <APP_BLE_Init+0x18c>)
 800461a:	930a      	str	r3, [sp, #40]	; 0x28
 800461c:	4621      	mov	r1, r4
 800461e:	f7ff fc7f 	bl	8003f20 <hci_init>
 8004622:	2101      	movs	r1, #1
 8004624:	2002      	movs	r0, #2
 8004626:	f000 fb47 	bl	8004cb8 <UTIL_LPM_SetOffMode>
 800462a:	2002      	movs	r0, #2
 800462c:	4a4f      	ldr	r2, [pc, #316]	; (800476c <APP_BLE_Init+0x190>)
 800462e:	2100      	movs	r1, #0
 8004630:	f000 fc70 	bl	8004f14 <UTIL_SEQ_RegTask>
 8004634:	4628      	mov	r0, r5
 8004636:	f7ff fc0b 	bl	8003e50 <SHCI_C2_BLE_Init>
 800463a:	b108      	cbz	r0, 8004640 <APP_BLE_Init+0x64>
 800463c:	f7fc fe28 	bl	8001290 <Error_Handler>
 8004640:	2500      	movs	r5, #0
 8004642:	f8ad 501c 	strh.w	r5, [sp, #28]
 8004646:	f7ff fb47 	bl	8003cd8 <hci_reset>
 800464a:	4b49      	ldr	r3, [pc, #292]	; (8004770 <APP_BLE_Init+0x194>)
 800464c:	f8d3 1580 	ldr.w	r1, [r3, #1408]	; 0x580
 8004650:	1c48      	adds	r0, r1, #1
 8004652:	d078      	beq.n	8004746 <APP_BLE_Init+0x16a>
 8004654:	4a47      	ldr	r2, [pc, #284]	; (8004774 <APP_BLE_Init+0x198>)
 8004656:	f8d3 3584 	ldr.w	r3, [r3, #1412]	; 0x584
 800465a:	7011      	strb	r1, [r2, #0]
 800465c:	0a09      	lsrs	r1, r1, #8
 800465e:	7051      	strb	r1, [r2, #1]
 8004660:	0a19      	lsrs	r1, r3, #8
 8004662:	7093      	strb	r3, [r2, #2]
 8004664:	70d1      	strb	r1, [r2, #3]
 8004666:	0c19      	lsrs	r1, r3, #16
 8004668:	0e1b      	lsrs	r3, r3, #24
 800466a:	7111      	strb	r1, [r2, #4]
 800466c:	7153      	strb	r3, [r2, #5]
 800466e:	2106      	movs	r1, #6
 8004670:	2000      	movs	r0, #0
 8004672:	f7ff fab9 	bl	8003be8 <aci_hal_write_config_data>
 8004676:	4a40      	ldr	r2, [pc, #256]	; (8004778 <APP_BLE_Init+0x19c>)
 8004678:	2110      	movs	r1, #16
 800467a:	2018      	movs	r0, #24
 800467c:	f7ff fab4 	bl	8003be8 <aci_hal_write_config_data>
 8004680:	4a3e      	ldr	r2, [pc, #248]	; (800477c <APP_BLE_Init+0x1a0>)
 8004682:	2110      	movs	r1, #16
 8004684:	2008      	movs	r0, #8
 8004686:	f7ff faaf 	bl	8003be8 <aci_hal_write_config_data>
 800468a:	2118      	movs	r1, #24
 800468c:	2001      	movs	r0, #1
 800468e:	f7ff fad9 	bl	8003c44 <aci_hal_set_tx_power_level>
 8004692:	f7ff f9ad 	bl	80039f0 <aci_gatt_init>
 8004696:	f10d 0322 	add.w	r3, sp, #34	; 0x22
 800469a:	9401      	str	r4, [sp, #4]
 800469c:	9300      	str	r3, [sp, #0]
 800469e:	2208      	movs	r2, #8
 80046a0:	ab08      	add	r3, sp, #32
 80046a2:	2100      	movs	r1, #0
 80046a4:	2001      	movs	r0, #1
 80046a6:	f7ff f8f3 	bl	8003890 <aci_gap_init>
 80046aa:	4b35      	ldr	r3, [pc, #212]	; (8004780 <APP_BLE_Init+0x1a4>)
 80046ac:	f8bd 1022 	ldrh.w	r1, [sp, #34]	; 0x22
 80046b0:	9300      	str	r3, [sp, #0]
 80046b2:	2200      	movs	r2, #0
 80046b4:	2308      	movs	r3, #8
 80046b6:	f8bd 0020 	ldrh.w	r0, [sp, #32]
 80046ba:	4c32      	ldr	r4, [pc, #200]	; (8004784 <APP_BLE_Init+0x1a8>)
 80046bc:	f7ff fa62 	bl	8003b84 <aci_gatt_update_char_value>
 80046c0:	ab07      	add	r3, sp, #28
 80046c2:	f8bd 1024 	ldrh.w	r1, [sp, #36]	; 0x24
 80046c6:	9300      	str	r3, [sp, #0]
 80046c8:	2200      	movs	r2, #0
 80046ca:	2302      	movs	r3, #2
 80046cc:	f8bd 0020 	ldrh.w	r0, [sp, #32]
 80046d0:	f7ff fa58 	bl	8003b84 <aci_gatt_update_char_value>
 80046d4:	2202      	movs	r2, #2
 80046d6:	2601      	movs	r6, #1
 80046d8:	4611      	mov	r1, r2
 80046da:	2000      	movs	r0, #0
 80046dc:	f7ff fb1a 	bl	8003d14 <hci_le_set_default_phy>
 80046e0:	4630      	mov	r0, r6
 80046e2:	7026      	strb	r6, [r4, #0]
 80046e4:	f7ff f84c 	bl	8003780 <aci_gap_set_io_capability>
 80046e8:	4b27      	ldr	r3, [pc, #156]	; (8004788 <APP_BLE_Init+0x1ac>)
 80046ea:	60a3      	str	r3, [r4, #8]
 80046ec:	2500      	movs	r5, #0
 80046ee:	f241 0208 	movw	r2, #4104	; 0x1008
 80046f2:	80a2      	strh	r2, [r4, #4]
 80046f4:	7066      	strb	r6, [r4, #1]
 80046f6:	8065      	strh	r5, [r4, #2]
 80046f8:	2210      	movs	r2, #16
 80046fa:	e9cd 3503 	strd	r3, r5, [sp, #12]
 80046fe:	2308      	movs	r3, #8
 8004700:	e9cd 3200 	strd	r3, r2, [sp]
 8004704:	9502      	str	r5, [sp, #8]
 8004706:	462b      	mov	r3, r5
 8004708:	4632      	mov	r2, r6
 800470a:	4631      	mov	r1, r6
 800470c:	4628      	mov	r0, r5
 800470e:	f7ff f85b 	bl	80037c8 <aci_gap_set_authentication_requirement>
 8004712:	78a3      	ldrb	r3, [r4, #2]
 8004714:	b10b      	cbz	r3, 800471a <APP_BLE_Init+0x13e>
 8004716:	f7ff f927 	bl	8003968 <aci_gap_configure_whitelist>
 800471a:	f7ff fb5f 	bl	8003ddc <SVCCTL_Init>
 800471e:	f64f 73ff 	movw	r3, #65535	; 0xffff
 8004722:	4a1a      	ldr	r2, [pc, #104]	; (800478c <APP_BLE_Init+0x1b0>)
 8004724:	82e3      	strh	r3, [r4, #22]
 8004726:	2100      	movs	r1, #0
 8004728:	2001      	movs	r0, #1
 800472a:	f884 5080 	strb.w	r5, [r4, #128]	; 0x80
 800472e:	f000 fbf1 	bl	8004f14 <UTIL_SEQ_RegTask>
 8004732:	2006      	movs	r0, #6
 8004734:	f7ff faac 	bl	8003c90 <aci_hal_set_radio_activity_mask>
 8004738:	f000 f8ac 	bl	8004894 <Custom_APP_Init>
 800473c:	8325      	strh	r5, [r4, #24]
 800473e:	f7ff ff2f 	bl	80045a0 <Adv_Request.constprop.0>
 8004742:	b018      	add	sp, #96	; 0x60
 8004744:	bd70      	pop	{r4, r5, r6, pc}
 8004746:	4628      	mov	r0, r5
 8004748:	f7ff feba 	bl	80044c0 <OTP_Read>
 800474c:	4a10      	ldr	r2, [pc, #64]	; (8004790 <APP_BLE_Init+0x1b4>)
 800474e:	2800      	cmp	r0, #0
 8004750:	bf18      	it	ne
 8004752:	4602      	movne	r2, r0
 8004754:	e78b      	b.n	800466e <APP_BLE_Init+0x92>
 8004756:	bf00      	nop
 8004758:	08004841 	.word	0x08004841
 800475c:	080058d8 	.word	0x080058d8
 8004760:	200300d4 	.word	0x200300d4
 8004764:	08004575 	.word	0x08004575
 8004768:	0800458b 	.word	0x0800458b
 800476c:	08003f75 	.word	0x08003f75
 8004770:	1fff7000 	.word	0x1fff7000
 8004774:	200007ec 	.word	0x200007ec
 8004778:	08008a95 	.word	0x08008a95
 800477c:	08008a85 	.word	0x08008a85
 8004780:	08008a7c 	.word	0x08008a7c
 8004784:	2000018c 	.word	0x2000018c
 8004788:	0001b207 	.word	0x0001b207
 800478c:	08004559 	.word	0x08004559
 8004790:	08008aa5 	.word	0x08008aa5

08004794 <SVCCTL_App_Notification>:
 8004794:	b510      	push	{r4, lr}
 8004796:	7843      	ldrb	r3, [r0, #1]
 8004798:	2b3e      	cmp	r3, #62	; 0x3e
 800479a:	d017      	beq.n	80047cc <SVCCTL_App_Notification+0x38>
 800479c:	2bff      	cmp	r3, #255	; 0xff
 800479e:	d029      	beq.n	80047f4 <SVCCTL_App_Notification+0x60>
 80047a0:	2b05      	cmp	r3, #5
 80047a2:	d111      	bne.n	80047c8 <SVCCTL_App_Notification+0x34>
 80047a4:	4c1e      	ldr	r4, [pc, #120]	; (8004820 <SVCCTL_App_Notification+0x8c>)
 80047a6:	8882      	ldrh	r2, [r0, #4]
 80047a8:	8ae3      	ldrh	r3, [r4, #22]
 80047aa:	429a      	cmp	r2, r3
 80047ac:	bf02      	ittt	eq
 80047ae:	2300      	moveq	r3, #0
 80047b0:	82e3      	strheq	r3, [r4, #22]
 80047b2:	f884 3080 	strbeq.w	r3, [r4, #128]	; 0x80
 80047b6:	f7ff fef3 	bl	80045a0 <Adv_Request.constprop.0>
 80047ba:	481a      	ldr	r0, [pc, #104]	; (8004824 <SVCCTL_App_Notification+0x90>)
 80047bc:	2301      	movs	r3, #1
 80047be:	7003      	strb	r3, [r0, #0]
 80047c0:	8ae3      	ldrh	r3, [r4, #22]
 80047c2:	8043      	strh	r3, [r0, #2]
 80047c4:	f000 f865 	bl	8004892 <Custom_APP_Notification>
 80047c8:	2001      	movs	r0, #1
 80047ca:	bd10      	pop	{r4, pc}
 80047cc:	78c3      	ldrb	r3, [r0, #3]
 80047ce:	2b01      	cmp	r3, #1
 80047d0:	d1fa      	bne.n	80047c8 <SVCCTL_App_Notification+0x34>
 80047d2:	4b13      	ldr	r3, [pc, #76]	; (8004820 <SVCCTL_App_Notification+0x8c>)
 80047d4:	f893 2080 	ldrb.w	r2, [r3, #128]	; 0x80
 80047d8:	2a04      	cmp	r2, #4
 80047da:	bf0c      	ite	eq
 80047dc:	2206      	moveq	r2, #6
 80047de:	2205      	movne	r2, #5
 80047e0:	f883 2080 	strb.w	r2, [r3, #128]	; 0x80
 80047e4:	f8b0 2005 	ldrh.w	r2, [r0, #5]
 80047e8:	480e      	ldr	r0, [pc, #56]	; (8004824 <SVCCTL_App_Notification+0x90>)
 80047ea:	82da      	strh	r2, [r3, #22]
 80047ec:	2300      	movs	r3, #0
 80047ee:	7003      	strb	r3, [r0, #0]
 80047f0:	8042      	strh	r2, [r0, #2]
 80047f2:	e7e7      	b.n	80047c4 <SVCCTL_App_Notification+0x30>
 80047f4:	f8b0 3003 	ldrh.w	r3, [r0, #3]
 80047f8:	f240 4202 	movw	r2, #1026	; 0x402
 80047fc:	4293      	cmp	r3, r2
 80047fe:	d009      	beq.n	8004814 <SVCCTL_App_Notification+0x80>
 8004800:	f240 4209 	movw	r2, #1033	; 0x409
 8004804:	4293      	cmp	r3, r2
 8004806:	d1df      	bne.n	80047c8 <SVCCTL_App_Notification+0x34>
 8004808:	4b05      	ldr	r3, [pc, #20]	; (8004820 <SVCCTL_App_Notification+0x8c>)
 800480a:	2101      	movs	r1, #1
 800480c:	8ad8      	ldrh	r0, [r3, #22]
 800480e:	f7ff f8c9 	bl	80039a4 <aci_gap_numeric_comparison_value_confirm_yesno>
 8004812:	e7d9      	b.n	80047c8 <SVCCTL_App_Notification+0x34>
 8004814:	4b02      	ldr	r3, [pc, #8]	; (8004820 <SVCCTL_App_Notification+0x8c>)
 8004816:	4904      	ldr	r1, [pc, #16]	; (8004828 <SVCCTL_App_Notification+0x94>)
 8004818:	8ad8      	ldrh	r0, [r3, #22]
 800481a:	f7ff f813 	bl	8003844 <aci_gap_pass_key_resp>
 800481e:	e7d3      	b.n	80047c8 <SVCCTL_App_Notification+0x34>
 8004820:	2000018c 	.word	0x2000018c
 8004824:	200007f2 	.word	0x200007f2
 8004828:	0001b207 	.word	0x0001b207

0800482c <hci_notify_asynch_evt>:
 800482c:	2100      	movs	r1, #0
 800482e:	2002      	movs	r0, #2
 8004830:	f000 ba58 	b.w	8004ce4 <UTIL_SEQ_SetTask>

08004834 <hci_cmd_resp_release>:
 8004834:	2001      	movs	r0, #1
 8004836:	f000 ba85 	b.w	8004d44 <UTIL_SEQ_SetEvt>

0800483a <hci_cmd_resp_wait>:
 800483a:	2001      	movs	r0, #1
 800483c:	f000 bb3c 	b.w	8004eb8 <UTIL_SEQ_WaitEvt>

08004840 <myTask>:
 8004840:	b508      	push	{r3, lr}
 8004842:	490f      	ldr	r1, [pc, #60]	; (8004880 <myTask+0x40>)
 8004844:	480f      	ldr	r0, [pc, #60]	; (8004884 <myTask+0x44>)
 8004846:	f000 fbef 	bl	8005028 <strcpy>
 800484a:	480f      	ldr	r0, [pc, #60]	; (8004888 <myTask+0x48>)
 800484c:	2110      	movs	r1, #16
 800484e:	f7fd f949 	bl	8001ae4 <HAL_GPIO_ReadPin>
 8004852:	b970      	cbnz	r0, 8004872 <myTask+0x32>
 8004854:	480b      	ldr	r0, [pc, #44]	; (8004884 <myTask+0x44>)
 8004856:	f7fb fc93 	bl	8000180 <strlen>
 800485a:	b281      	uxth	r1, r0
 800485c:	4809      	ldr	r0, [pc, #36]	; (8004884 <myTask+0x44>)
 800485e:	f7fc fc1f 	bl	80010a0 <UART_Transmit>
 8004862:	490a      	ldr	r1, [pc, #40]	; (800488c <myTask+0x4c>)
 8004864:	780b      	ldrb	r3, [r1, #0]
 8004866:	f083 0301 	eor.w	r3, r3, #1
 800486a:	700b      	strb	r3, [r1, #0]
 800486c:	2001      	movs	r0, #1
 800486e:	f000 f921 	bl	8004ab4 <Custom_STM_App_Update_Char>
 8004872:	e8bd 4008 	ldmia.w	sp!, {r3, lr}
 8004876:	2100      	movs	r1, #0
 8004878:	2004      	movs	r0, #4
 800487a:	f000 ba33 	b.w	8004ce4 <UTIL_SEQ_SetTask>
 800487e:	bf00      	nop
 8004880:	08008aab 	.word	0x08008aab
 8004884:	200007f6 	.word	0x200007f6
 8004888:	48000800 	.word	0x48000800
 800488c:	20000819 	.word	0x20000819

08004890 <Custom_STM_App_Notification>:
 8004890:	4770      	bx	lr

08004892 <Custom_APP_Notification>:
 8004892:	4770      	bx	lr

08004894 <Custom_APP_Init>:
 8004894:	4770      	bx	lr
	...

08004898 <Custom_STM_Event_Handler>:
 8004898:	b51f      	push	{r0, r1, r2, r3, r4, lr}
 800489a:	7843      	ldrb	r3, [r0, #1]
 800489c:	2bff      	cmp	r3, #255	; 0xff
 800489e:	4604      	mov	r4, r0
 80048a0:	d139      	bne.n	8004916 <Custom_STM_Event_Handler+0x7e>
 80048a2:	f8b0 2003 	ldrh.w	r2, [r0, #3]
 80048a6:	f640 4301 	movw	r3, #3073	; 0xc01
 80048aa:	429a      	cmp	r2, r3
 80048ac:	d133      	bne.n	8004916 <Custom_STM_Event_Handler+0x7e>
 80048ae:	491b      	ldr	r1, [pc, #108]	; (800491c <Custom_STM_Event_Handler+0x84>)
 80048b0:	f8b0 2007 	ldrh.w	r2, [r0, #7]
 80048b4:	888b      	ldrh	r3, [r1, #4]
 80048b6:	3302      	adds	r3, #2
 80048b8:	429a      	cmp	r2, r3
 80048ba:	d114      	bne.n	80048e6 <Custom_STM_Event_Handler+0x4e>
 80048bc:	7b44      	ldrb	r4, [r0, #13]
 80048be:	b11c      	cbz	r4, 80048c8 <Custom_STM_Event_Handler+0x30>
 80048c0:	2c01      	cmp	r4, #1
 80048c2:	d008      	beq.n	80048d6 <Custom_STM_Event_Handler+0x3e>
 80048c4:	2401      	movs	r4, #1
 80048c6:	e00b      	b.n	80048e0 <Custom_STM_Event_Handler+0x48>
 80048c8:	2302      	movs	r3, #2
 80048ca:	4668      	mov	r0, sp
 80048cc:	f88d 3000 	strb.w	r3, [sp]
 80048d0:	f7ff ffde 	bl	8004890 <Custom_STM_App_Notification>
 80048d4:	e7f6      	b.n	80048c4 <Custom_STM_Event_Handler+0x2c>
 80048d6:	4668      	mov	r0, sp
 80048d8:	f88d 4000 	strb.w	r4, [sp]
 80048dc:	f7ff ffd8 	bl	8004890 <Custom_STM_App_Notification>
 80048e0:	4620      	mov	r0, r4
 80048e2:	b004      	add	sp, #16
 80048e4:	bd10      	pop	{r4, pc}
 80048e6:	884b      	ldrh	r3, [r1, #2]
 80048e8:	3301      	adds	r3, #1
 80048ea:	429a      	cmp	r2, r3
 80048ec:	d113      	bne.n	8004916 <Custom_STM_Event_Handler+0x7e>
 80048ee:	7b42      	ldrb	r2, [r0, #13]
 80048f0:	490b      	ldr	r1, [pc, #44]	; (8004920 <Custom_STM_Event_Handler+0x88>)
 80048f2:	480c      	ldr	r0, [pc, #48]	; (8004924 <Custom_STM_Event_Handler+0x8c>)
 80048f4:	f000 fb78 	bl	8004fe8 <siprintf>
 80048f8:	480a      	ldr	r0, [pc, #40]	; (8004924 <Custom_STM_Event_Handler+0x8c>)
 80048fa:	f7fb fc41 	bl	8000180 <strlen>
 80048fe:	b281      	uxth	r1, r0
 8004900:	4808      	ldr	r0, [pc, #32]	; (8004924 <Custom_STM_Event_Handler+0x8c>)
 8004902:	f7fc fbcd 	bl	80010a0 <UART_Transmit>
 8004906:	7b63      	ldrb	r3, [r4, #13]
 8004908:	2b22      	cmp	r3, #34	; 0x22
 800490a:	d1db      	bne.n	80048c4 <Custom_STM_Event_Handler+0x2c>
 800490c:	4806      	ldr	r0, [pc, #24]	; (8004928 <Custom_STM_Event_Handler+0x90>)
 800490e:	2101      	movs	r1, #1
 8004910:	f7fd f8f3 	bl	8001afa <HAL_GPIO_TogglePin>
 8004914:	e7d6      	b.n	80048c4 <Custom_STM_Event_Handler+0x2c>
 8004916:	2400      	movs	r4, #0
 8004918:	e7e2      	b.n	80048e0 <Custom_STM_Event_Handler+0x48>
 800491a:	bf00      	nop
 800491c:	20000172 	.word	0x20000172
 8004920:	08008abd 	.word	0x08008abd
 8004924:	20000910 	.word	0x20000910
 8004928:	48000400 	.word	0x48000400

0800492c <SVCCTL_InitCustomSvc>:
 800492c:	e92d 4ff0 	stmdb	sp!, {r4, r5, r6, r7, r8, r9, sl, fp, lr}
 8004930:	485e      	ldr	r0, [pc, #376]	; (8004aac <SVCCTL_InitCustomSvc+0x180>)
 8004932:	4d5f      	ldr	r5, [pc, #380]	; (8004ab0 <SVCCTL_InitCustomSvc+0x184>)
 8004934:	b08b      	sub	sp, #44	; 0x2c
 8004936:	f7ff fa5d 	bl	8003df4 <SVCCTL_RegisterSvcHandler>
 800493a:	238f      	movs	r3, #143	; 0x8f
 800493c:	f88d 3018 	strb.w	r3, [sp, #24]
 8004940:	23e5      	movs	r3, #229	; 0xe5
 8004942:	f88d 3019 	strb.w	r3, [sp, #25]
 8004946:	23b3      	movs	r3, #179	; 0xb3
 8004948:	f88d 301a 	strb.w	r3, [sp, #26]
 800494c:	23d5      	movs	r3, #213	; 0xd5
 800494e:	f88d 301b 	strb.w	r3, [sp, #27]
 8004952:	232e      	movs	r3, #46	; 0x2e
 8004954:	f88d 301c 	strb.w	r3, [sp, #28]
 8004958:	237f      	movs	r3, #127	; 0x7f
 800495a:	f88d 301d 	strb.w	r3, [sp, #29]
 800495e:	234a      	movs	r3, #74	; 0x4a
 8004960:	f88d 301e 	strb.w	r3, [sp, #30]
 8004964:	2398      	movs	r3, #152	; 0x98
 8004966:	f88d 301f 	strb.w	r3, [sp, #31]
 800496a:	232a      	movs	r3, #42	; 0x2a
 800496c:	f88d 3020 	strb.w	r3, [sp, #32]
 8004970:	2348      	movs	r3, #72	; 0x48
 8004972:	f88d 3021 	strb.w	r3, [sp, #33]	; 0x21
 8004976:	237a      	movs	r3, #122	; 0x7a
 8004978:	f88d 3022 	strb.w	r3, [sp, #34]	; 0x22
 800497c:	23cc      	movs	r3, #204	; 0xcc
 800497e:	2400      	movs	r4, #0
 8004980:	f88d 3023 	strb.w	r3, [sp, #35]	; 0x23
 8004984:	9500      	str	r5, [sp, #0]
 8004986:	a906      	add	r1, sp, #24
 8004988:	2306      	movs	r3, #6
 800498a:	2201      	movs	r2, #1
 800498c:	2002      	movs	r0, #2
 800498e:	f88d 4024 	strb.w	r4, [sp, #36]	; 0x24
 8004992:	f88d 4025 	strb.w	r4, [sp, #37]	; 0x25
 8004996:	f88d 4026 	strb.w	r4, [sp, #38]	; 0x26
 800499a:	f88d 4027 	strb.w	r4, [sp, #39]	; 0x27
 800499e:	f7ff f845 	bl	8003a2c <aci_gatt_add_service>
 80049a2:	f04f 034c 	mov.w	r3, #76	; 0x4c
 80049a6:	f88d 301e 	strb.w	r3, [sp, #30]
 80049aa:	462b      	mov	r3, r5
 80049ac:	f04f 0045 	mov.w	r0, #69	; 0x45
 80049b0:	f88d 0021 	strb.w	r0, [sp, #33]	; 0x21
 80049b4:	f833 0b02 	ldrh.w	r0, [r3], #2
 80049b8:	9401      	str	r4, [sp, #4]
 80049ba:	f06f 0262 	mvn.w	r2, #98	; 0x62
 80049be:	f04f 0722 	mov.w	r7, #34	; 0x22
 80049c2:	f10d 0e18 	add.w	lr, sp, #24
 80049c6:	e9cd 4304 	strd	r4, r3, [sp, #16]
 80049ca:	f88d 201f 	strb.w	r2, [sp, #31]
 80049ce:	f88d 7022 	strb.w	r7, [sp, #34]	; 0x22
 80049d2:	2301      	movs	r3, #1
 80049d4:	2710      	movs	r7, #16
 80049d6:	f04f 0141 	mov.w	r1, #65	; 0x41
 80049da:	2208      	movs	r2, #8
 80049dc:	26ed      	movs	r6, #237	; 0xed
 80049de:	e9cd 3702 	strd	r3, r7, [sp, #8]
 80049e2:	f04f 0b19 	mov.w	fp, #25
 80049e6:	f04f 0a82 	mov.w	sl, #130	; 0x82
 80049ea:	f04f 09ae 	mov.w	r9, #174	; 0xae
 80049ee:	f04f 0821 	mov.w	r8, #33	; 0x21
 80049f2:	f88d 1020 	strb.w	r1, [sp, #32]
 80049f6:	f06f 0c71 	mvn.w	ip, #113	; 0x71
 80049fa:	9200      	str	r2, [sp, #0]
 80049fc:	2102      	movs	r1, #2
 80049fe:	4672      	mov	r2, lr
 8004a00:	f88d c023 	strb.w	ip, [sp, #35]	; 0x23
 8004a04:	f88d b018 	strb.w	fp, [sp, #24]
 8004a08:	f88d 6019 	strb.w	r6, [sp, #25]
 8004a0c:	f88d a01a 	strb.w	sl, [sp, #26]
 8004a10:	f88d 901b 	strb.w	r9, [sp, #27]
 8004a14:	f88d 601c 	strb.w	r6, [sp, #28]
 8004a18:	f88d 801d 	strb.w	r8, [sp, #29]
 8004a1c:	f88d 4024 	strb.w	r4, [sp, #36]	; 0x24
 8004a20:	f88d 4025 	strb.w	r4, [sp, #37]	; 0x25
 8004a24:	f88d 4026 	strb.w	r4, [sp, #38]	; 0x26
 8004a28:	f88d 4027 	strb.w	r4, [sp, #39]	; 0x27
 8004a2c:	f7ff f84e 	bl	8003acc <aci_gatt_add_char>
 8004a30:	f04f 0045 	mov.w	r0, #69	; 0x45
 8004a34:	f88d 0021 	strb.w	r0, [sp, #33]	; 0x21
 8004a38:	f04f 034c 	mov.w	r3, #76	; 0x4c
 8004a3c:	f835 0b04 	ldrh.w	r0, [r5], #4
 8004a40:	f88d 301e 	strb.w	r3, [sp, #30]
 8004a44:	f06f 0262 	mvn.w	r2, #98	; 0x62
 8004a48:	f88d 201f 	strb.w	r2, [sp, #31]
 8004a4c:	f04f 0141 	mov.w	r1, #65	; 0x41
 8004a50:	f04f 0322 	mov.w	r3, #34	; 0x22
 8004a54:	2207      	movs	r2, #7
 8004a56:	e9cd 4201 	strd	r4, r2, [sp, #4]
 8004a5a:	f88d 1020 	strb.w	r1, [sp, #32]
 8004a5e:	f88d 3022 	strb.w	r3, [sp, #34]	; 0x22
 8004a62:	f06f 0c71 	mvn.w	ip, #113	; 0x71
 8004a66:	2301      	movs	r3, #1
 8004a68:	e9cd 4504 	strd	r4, r5, [sp, #16]
 8004a6c:	9703      	str	r7, [sp, #12]
 8004a6e:	9700      	str	r7, [sp, #0]
 8004a70:	aa06      	add	r2, sp, #24
 8004a72:	2102      	movs	r1, #2
 8004a74:	f88d b018 	strb.w	fp, [sp, #24]
 8004a78:	f88d 6019 	strb.w	r6, [sp, #25]
 8004a7c:	f88d a01a 	strb.w	sl, [sp, #26]
 8004a80:	f88d 901b 	strb.w	r9, [sp, #27]
 8004a84:	f88d 601c 	strb.w	r6, [sp, #28]
 8004a88:	f88d 801d 	strb.w	r8, [sp, #29]
 8004a8c:	f88d c023 	strb.w	ip, [sp, #35]	; 0x23
 8004a90:	f88d 3024 	strb.w	r3, [sp, #36]	; 0x24
 8004a94:	f88d 4025 	strb.w	r4, [sp, #37]	; 0x25
 8004a98:	f88d 4026 	strb.w	r4, [sp, #38]	; 0x26
 8004a9c:	f88d 4027 	strb.w	r4, [sp, #39]	; 0x27
 8004aa0:	f7ff f814 	bl	8003acc <aci_gatt_add_char>
 8004aa4:	b00b      	add	sp, #44	; 0x2c
 8004aa6:	e8bd 8ff0 	ldmia.w	sp!, {r4, r5, r6, r7, r8, r9, sl, fp, pc}
 8004aaa:	bf00      	nop
 8004aac:	08004899 	.word	0x08004899
 8004ab0:	20000172 	.word	0x20000172

08004ab4 <Custom_STM_App_Update_Char>:
 8004ab4:	b513      	push	{r0, r1, r4, lr}
 8004ab6:	4602      	mov	r2, r0
 8004ab8:	b120      	cbz	r0, 8004ac4 <Custom_STM_App_Update_Char+0x10>
 8004aba:	2801      	cmp	r0, #1
 8004abc:	d00a      	beq.n	8004ad4 <Custom_STM_App_Update_Char+0x20>
 8004abe:	2092      	movs	r0, #146	; 0x92
 8004ac0:	b002      	add	sp, #8
 8004ac2:	bd10      	pop	{r4, pc}
 8004ac4:	4c06      	ldr	r4, [pc, #24]	; (8004ae0 <Custom_STM_App_Update_Char+0x2c>)
 8004ac6:	9100      	str	r1, [sp, #0]
 8004ac8:	8861      	ldrh	r1, [r4, #2]
 8004aca:	2301      	movs	r3, #1
 8004acc:	8820      	ldrh	r0, [r4, #0]
 8004ace:	f7ff f859 	bl	8003b84 <aci_gatt_update_char_value>
 8004ad2:	e7f5      	b.n	8004ac0 <Custom_STM_App_Update_Char+0xc>
 8004ad4:	4c02      	ldr	r4, [pc, #8]	; (8004ae0 <Custom_STM_App_Update_Char+0x2c>)
 8004ad6:	9100      	str	r1, [sp, #0]
 8004ad8:	4603      	mov	r3, r0
 8004ada:	88a1      	ldrh	r1, [r4, #4]
 8004adc:	2200      	movs	r2, #0
 8004ade:	e7f5      	b.n	8004acc <Custom_STM_App_Update_Char+0x18>
 8004ae0:	20000172 	.word	0x20000172

08004ae4 <HW_IPCC_Enable>:
 8004ae4:	f04f 43b0 	mov.w	r3, #1476395008	; 0x58000000
 8004ae8:	b082      	sub	sp, #8
 8004aea:	f8d3 2150 	ldr.w	r2, [r3, #336]	; 0x150
 8004aee:	f442 1280 	orr.w	r2, r2, #1048576	; 0x100000
 8004af2:	f8c3 2150 	str.w	r2, [r3, #336]	; 0x150
 8004af6:	f8d3 3150 	ldr.w	r3, [r3, #336]	; 0x150
 8004afa:	f403 1380 	and.w	r3, r3, #1048576	; 0x100000
 8004afe:	9301      	str	r3, [sp, #4]
 8004b00:	9b01      	ldr	r3, [sp, #4]
 8004b02:	4b0a      	ldr	r3, [pc, #40]	; (8004b2c <HW_IPCC_Enable+0x48>)
 8004b04:	f8d3 20d4 	ldr.w	r2, [r3, #212]	; 0xd4
 8004b08:	f442 7200 	orr.w	r2, r2, #512	; 0x200
 8004b0c:	f8c3 20d4 	str.w	r2, [r3, #212]	; 0xd4
 8004b10:	6a1a      	ldr	r2, [r3, #32]
 8004b12:	f442 7200 	orr.w	r2, r2, #512	; 0x200
 8004b16:	621a      	str	r2, [r3, #32]
 8004b18:	bf40      	sev
 8004b1a:	bf20      	wfe
 8004b1c:	4a04      	ldr	r2, [pc, #16]	; (8004b30 <HW_IPCC_Enable+0x4c>)
 8004b1e:	68d3      	ldr	r3, [r2, #12]
 8004b20:	f443 4300 	orr.w	r3, r3, #32768	; 0x8000
 8004b24:	60d3      	str	r3, [r2, #12]
 8004b26:	b002      	add	sp, #8
 8004b28:	4770      	bx	lr
 8004b2a:	bf00      	nop
 8004b2c:	58000800 	.word	0x58000800
 8004b30:	58000400 	.word	0x58000400

08004b34 <HW_IPCC_Init>:
 8004b34:	f04f 43b0 	mov.w	r3, #1476395008	; 0x58000000
 8004b38:	b507      	push	{r0, r1, r2, lr}
 8004b3a:	6d1a      	ldr	r2, [r3, #80]	; 0x50
 8004b3c:	f442 1280 	orr.w	r2, r2, #1048576	; 0x100000
 8004b40:	651a      	str	r2, [r3, #80]	; 0x50
 8004b42:	6d1b      	ldr	r3, [r3, #80]	; 0x50
 8004b44:	f403 1380 	and.w	r3, r3, #1048576	; 0x100000
 8004b48:	9301      	str	r3, [sp, #4]
 8004b4a:	9b01      	ldr	r3, [sp, #4]
 8004b4c:	4b08      	ldr	r3, [pc, #32]	; (8004b70 <HW_IPCC_Init+0x3c>)
 8004b4e:	681a      	ldr	r2, [r3, #0]
 8004b50:	f042 0201 	orr.w	r2, r2, #1
 8004b54:	601a      	str	r2, [r3, #0]
 8004b56:	681a      	ldr	r2, [r3, #0]
 8004b58:	f442 3280 	orr.w	r2, r2, #65536	; 0x10000
 8004b5c:	601a      	str	r2, [r3, #0]
 8004b5e:	202c      	movs	r0, #44	; 0x2c
 8004b60:	f7fc feb4 	bl	80018cc <HAL_NVIC_EnableIRQ>
 8004b64:	202d      	movs	r0, #45	; 0x2d
 8004b66:	b003      	add	sp, #12
 8004b68:	f85d eb04 	ldr.w	lr, [sp], #4
 8004b6c:	f7fc beae 	b.w	80018cc <HAL_NVIC_EnableIRQ>
 8004b70:	58000c00 	.word	0x58000c00

08004b74 <HW_IPCC_BLE_Init>:
 8004b74:	4a02      	ldr	r2, [pc, #8]	; (8004b80 <HW_IPCC_BLE_Init+0xc>)
 8004b76:	6853      	ldr	r3, [r2, #4]
 8004b78:	f023 0301 	bic.w	r3, r3, #1
 8004b7c:	6053      	str	r3, [r2, #4]
 8004b7e:	4770      	bx	lr
 8004b80:	58000c00 	.word	0x58000c00

08004b84 <HW_IPCC_BLE_SendCmd>:
 8004b84:	4b02      	ldr	r3, [pc, #8]	; (8004b90 <HW_IPCC_BLE_SendCmd+0xc>)
 8004b86:	f44f 3280 	mov.w	r2, #65536	; 0x10000
 8004b8a:	609a      	str	r2, [r3, #8]
 8004b8c:	4770      	bx	lr
 8004b8e:	bf00      	nop
 8004b90:	58000c00 	.word	0x58000c00

08004b94 <HW_IPCC_SYS_Init>:
 8004b94:	4a02      	ldr	r2, [pc, #8]	; (8004ba0 <HW_IPCC_SYS_Init+0xc>)
 8004b96:	6853      	ldr	r3, [r2, #4]
 8004b98:	f023 0302 	bic.w	r3, r3, #2
 8004b9c:	6053      	str	r3, [r2, #4]
 8004b9e:	4770      	bx	lr
 8004ba0:	58000c00 	.word	0x58000c00

08004ba4 <HW_IPCC_SYS_SendCmd>:
 8004ba4:	4b04      	ldr	r3, [pc, #16]	; (8004bb8 <HW_IPCC_SYS_SendCmd+0x14>)
 8004ba6:	f44f 3200 	mov.w	r2, #131072	; 0x20000
 8004baa:	609a      	str	r2, [r3, #8]
 8004bac:	685a      	ldr	r2, [r3, #4]
 8004bae:	f422 3200 	bic.w	r2, r2, #131072	; 0x20000
 8004bb2:	605a      	str	r2, [r3, #4]
 8004bb4:	4770      	bx	lr
 8004bb6:	bf00      	nop
 8004bb8:	58000c00 	.word	0x58000c00

08004bbc <HW_IPCC_Tx_Handler>:
 8004bbc:	b510      	push	{r4, lr}
 8004bbe:	4c16      	ldr	r4, [pc, #88]	; (8004c18 <HW_IPCC_Tx_Handler+0x5c>)
 8004bc0:	68e3      	ldr	r3, [r4, #12]
 8004bc2:	0799      	lsls	r1, r3, #30
 8004bc4:	d409      	bmi.n	8004bda <HW_IPCC_Tx_Handler+0x1e>
 8004bc6:	6863      	ldr	r3, [r4, #4]
 8004bc8:	039a      	lsls	r2, r3, #14
 8004bca:	d406      	bmi.n	8004bda <HW_IPCC_Tx_Handler+0x1e>
 8004bcc:	6863      	ldr	r3, [r4, #4]
 8004bce:	f443 3300 	orr.w	r3, r3, #131072	; 0x20000
 8004bd2:	6063      	str	r3, [r4, #4]
 8004bd4:	f7ff fc00 	bl	80043d8 <HW_IPCC_SYS_CmdEvtNot>
 8004bd8:	bd10      	pop	{r4, pc}
 8004bda:	68e3      	ldr	r3, [r4, #12]
 8004bdc:	071b      	lsls	r3, r3, #28
 8004bde:	d40d      	bmi.n	8004bfc <HW_IPCC_Tx_Handler+0x40>
 8004be0:	6863      	ldr	r3, [r4, #4]
 8004be2:	0318      	lsls	r0, r3, #12
 8004be4:	d40a      	bmi.n	8004bfc <HW_IPCC_Tx_Handler+0x40>
 8004be6:	6863      	ldr	r3, [r4, #4]
 8004be8:	f443 2300 	orr.w	r3, r3, #524288	; 0x80000
 8004bec:	6063      	str	r3, [r4, #4]
 8004bee:	4b0b      	ldr	r3, [pc, #44]	; (8004c1c <HW_IPCC_Tx_Handler+0x60>)
 8004bf0:	681b      	ldr	r3, [r3, #0]
 8004bf2:	4798      	blx	r3
 8004bf4:	f44f 2300 	mov.w	r3, #524288	; 0x80000
 8004bf8:	60a3      	str	r3, [r4, #8]
 8004bfa:	e7ed      	b.n	8004bd8 <HW_IPCC_Tx_Handler+0x1c>
 8004bfc:	4b06      	ldr	r3, [pc, #24]	; (8004c18 <HW_IPCC_Tx_Handler+0x5c>)
 8004bfe:	68da      	ldr	r2, [r3, #12]
 8004c00:	0691      	lsls	r1, r2, #26
 8004c02:	d4e9      	bmi.n	8004bd8 <HW_IPCC_Tx_Handler+0x1c>
 8004c04:	685a      	ldr	r2, [r3, #4]
 8004c06:	0292      	lsls	r2, r2, #10
 8004c08:	d4e6      	bmi.n	8004bd8 <HW_IPCC_Tx_Handler+0x1c>
 8004c0a:	685a      	ldr	r2, [r3, #4]
 8004c0c:	f442 1200 	orr.w	r2, r2, #2097152	; 0x200000
 8004c10:	605a      	str	r2, [r3, #4]
 8004c12:	f7ff fbaf 	bl	8004374 <HW_IPCC_BLE_AclDataAckNot>
 8004c16:	e7df      	b.n	8004bd8 <HW_IPCC_Tx_Handler+0x1c>
 8004c18:	58000c00 	.word	0x58000c00
 8004c1c:	20000934 	.word	0x20000934

08004c20 <HW_IPCC_MM_SendFreeBuf>:
 8004c20:	b510      	push	{r4, lr}
 8004c22:	4c08      	ldr	r4, [pc, #32]	; (8004c44 <HW_IPCC_MM_SendFreeBuf+0x24>)
 8004c24:	68e3      	ldr	r3, [r4, #12]
 8004c26:	071b      	lsls	r3, r3, #28
 8004c28:	d506      	bpl.n	8004c38 <HW_IPCC_MM_SendFreeBuf+0x18>
 8004c2a:	4b07      	ldr	r3, [pc, #28]	; (8004c48 <HW_IPCC_MM_SendFreeBuf+0x28>)
 8004c2c:	6018      	str	r0, [r3, #0]
 8004c2e:	6863      	ldr	r3, [r4, #4]
 8004c30:	f423 2300 	bic.w	r3, r3, #524288	; 0x80000
 8004c34:	6063      	str	r3, [r4, #4]
 8004c36:	bd10      	pop	{r4, pc}
 8004c38:	4780      	blx	r0
 8004c3a:	f44f 2300 	mov.w	r3, #524288	; 0x80000
 8004c3e:	60a3      	str	r3, [r4, #8]
 8004c40:	e7f9      	b.n	8004c36 <HW_IPCC_MM_SendFreeBuf+0x16>
 8004c42:	bf00      	nop
 8004c44:	58000c00 	.word	0x58000c00
 8004c48:	20000934 	.word	0x20000934

08004c4c <HW_IPCC_TRACES_Init>:
 8004c4c:	4a02      	ldr	r2, [pc, #8]	; (8004c58 <HW_IPCC_TRACES_Init+0xc>)
 8004c4e:	6853      	ldr	r3, [r2, #4]
 8004c50:	f023 0308 	bic.w	r3, r3, #8
 8004c54:	6053      	str	r3, [r2, #4]
 8004c56:	4770      	bx	lr
 8004c58:	58000c00 	.word	0x58000c00

08004c5c <HW_IPCC_Rx_Handler>:
 8004c5c:	b510      	push	{r4, lr}
 8004c5e:	4c10      	ldr	r4, [pc, #64]	; (8004ca0 <HW_IPCC_Rx_Handler+0x44>)
 8004c60:	69e3      	ldr	r3, [r4, #28]
 8004c62:	079a      	lsls	r2, r3, #30
 8004c64:	d507      	bpl.n	8004c76 <HW_IPCC_Rx_Handler+0x1a>
 8004c66:	6863      	ldr	r3, [r4, #4]
 8004c68:	079b      	lsls	r3, r3, #30
 8004c6a:	d404      	bmi.n	8004c76 <HW_IPCC_Rx_Handler+0x1a>
 8004c6c:	f7ff fbc0 	bl	80043f0 <HW_IPCC_SYS_EvtNot>
 8004c70:	2302      	movs	r3, #2
 8004c72:	60a3      	str	r3, [r4, #8]
 8004c74:	bd10      	pop	{r4, pc}
 8004c76:	69e3      	ldr	r3, [r4, #28]
 8004c78:	07d8      	lsls	r0, r3, #31
 8004c7a:	d506      	bpl.n	8004c8a <HW_IPCC_Rx_Handler+0x2e>
 8004c7c:	6863      	ldr	r3, [r4, #4]
 8004c7e:	07d9      	lsls	r1, r3, #31
 8004c80:	d403      	bmi.n	8004c8a <HW_IPCC_Rx_Handler+0x2e>
 8004c82:	f7ff fb61 	bl	8004348 <HW_IPCC_BLE_RxEvtNot>
 8004c86:	2301      	movs	r3, #1
 8004c88:	e7f3      	b.n	8004c72 <HW_IPCC_Rx_Handler+0x16>
 8004c8a:	4c05      	ldr	r4, [pc, #20]	; (8004ca0 <HW_IPCC_Rx_Handler+0x44>)
 8004c8c:	69e3      	ldr	r3, [r4, #28]
 8004c8e:	071a      	lsls	r2, r3, #28
 8004c90:	d5f0      	bpl.n	8004c74 <HW_IPCC_Rx_Handler+0x18>
 8004c92:	6863      	ldr	r3, [r4, #4]
 8004c94:	071b      	lsls	r3, r3, #28
 8004c96:	d4ed      	bmi.n	8004c74 <HW_IPCC_Rx_Handler+0x18>
 8004c98:	f7ff fc00 	bl	800449c <HW_IPCC_TRACES_EvtNot>
 8004c9c:	2308      	movs	r3, #8
 8004c9e:	e7e8      	b.n	8004c72 <HW_IPCC_Rx_Handler+0x16>
 8004ca0:	58000c00 	.word	0x58000c00

08004ca4 <UTIL_LPM_Init>:
 8004ca4:	4a02      	ldr	r2, [pc, #8]	; (8004cb0 <UTIL_LPM_Init+0xc>)
 8004ca6:	2300      	movs	r3, #0
 8004ca8:	6013      	str	r3, [r2, #0]
 8004caa:	4a02      	ldr	r2, [pc, #8]	; (8004cb4 <UTIL_LPM_Init+0x10>)
 8004cac:	6013      	str	r3, [r2, #0]
 8004cae:	4770      	bx	lr
 8004cb0:	2000093c 	.word	0x2000093c
 8004cb4:	20000938 	.word	0x20000938

08004cb8 <UTIL_LPM_SetOffMode>:
 8004cb8:	b510      	push	{r4, lr}
 8004cba:	f3ef 8410 	mrs	r4, PRIMASK
 8004cbe:	b672      	cpsid	i
 8004cc0:	b141      	cbz	r1, 8004cd4 <UTIL_LPM_SetOffMode+0x1c>
 8004cc2:	2901      	cmp	r1, #1
 8004cc4:	d103      	bne.n	8004cce <UTIL_LPM_SetOffMode+0x16>
 8004cc6:	4a06      	ldr	r2, [pc, #24]	; (8004ce0 <UTIL_LPM_SetOffMode+0x28>)
 8004cc8:	6813      	ldr	r3, [r2, #0]
 8004cca:	4318      	orrs	r0, r3
 8004ccc:	6010      	str	r0, [r2, #0]
 8004cce:	f384 8810 	msr	PRIMASK, r4
 8004cd2:	bd10      	pop	{r4, pc}
 8004cd4:	4a02      	ldr	r2, [pc, #8]	; (8004ce0 <UTIL_LPM_SetOffMode+0x28>)
 8004cd6:	6813      	ldr	r3, [r2, #0]
 8004cd8:	ea23 0000 	bic.w	r0, r3, r0
 8004cdc:	e7f6      	b.n	8004ccc <UTIL_LPM_SetOffMode+0x14>
 8004cde:	bf00      	nop
 8004ce0:	20000938 	.word	0x20000938

08004ce4 <UTIL_SEQ_SetTask>:
 8004ce4:	b510      	push	{r4, lr}
 8004ce6:	f3ef 8410 	mrs	r4, PRIMASK
 8004cea:	b672      	cpsid	i
 8004cec:	4a06      	ldr	r2, [pc, #24]	; (8004d08 <UTIL_SEQ_SetTask+0x24>)
 8004cee:	6813      	ldr	r3, [r2, #0]
 8004cf0:	4303      	orrs	r3, r0
 8004cf2:	6013      	str	r3, [r2, #0]
 8004cf4:	4a05      	ldr	r2, [pc, #20]	; (8004d0c <UTIL_SEQ_SetTask+0x28>)
 8004cf6:	f852 3031 	ldr.w	r3, [r2, r1, lsl #3]
 8004cfa:	4318      	orrs	r0, r3
 8004cfc:	f842 0031 	str.w	r0, [r2, r1, lsl #3]
 8004d00:	f384 8810 	msr	PRIMASK, r4
 8004d04:	bd10      	pop	{r4, pc}
 8004d06:	bf00      	nop
 8004d08:	200009dc 	.word	0x200009dc
 8004d0c:	200009cc 	.word	0x200009cc

08004d10 <UTIL_SEQ_PauseTask>:
 8004d10:	f3ef 8110 	mrs	r1, PRIMASK
 8004d14:	b672      	cpsid	i
 8004d16:	4a04      	ldr	r2, [pc, #16]	; (8004d28 <UTIL_SEQ_PauseTask+0x18>)
 8004d18:	6813      	ldr	r3, [r2, #0]
 8004d1a:	ea23 0000 	bic.w	r0, r3, r0
 8004d1e:	6010      	str	r0, [r2, #0]
 8004d20:	f381 8810 	msr	PRIMASK, r1
 8004d24:	4770      	bx	lr
 8004d26:	bf00      	nop
 8004d28:	2000003c 	.word	0x2000003c

08004d2c <UTIL_SEQ_ResumeTask>:
 8004d2c:	f3ef 8110 	mrs	r1, PRIMASK
 8004d30:	b672      	cpsid	i
 8004d32:	4a03      	ldr	r2, [pc, #12]	; (8004d40 <UTIL_SEQ_ResumeTask+0x14>)
 8004d34:	6813      	ldr	r3, [r2, #0]
 8004d36:	4318      	orrs	r0, r3
 8004d38:	6010      	str	r0, [r2, #0]
 8004d3a:	f381 8810 	msr	PRIMASK, r1
 8004d3e:	4770      	bx	lr
 8004d40:	2000003c 	.word	0x2000003c

08004d44 <UTIL_SEQ_SetEvt>:
 8004d44:	f3ef 8110 	mrs	r1, PRIMASK
 8004d48:	b672      	cpsid	i
 8004d4a:	4a03      	ldr	r2, [pc, #12]	; (8004d58 <UTIL_SEQ_SetEvt+0x14>)
 8004d4c:	6813      	ldr	r3, [r2, #0]
 8004d4e:	4318      	orrs	r0, r3
 8004d50:	6010      	str	r0, [r2, #0]
 8004d52:	f381 8810 	msr	PRIMASK, r1
 8004d56:	4770      	bx	lr
 8004d58:	20000944 	.word	0x20000944

08004d5c <UTIL_SEQ_PreIdle>:
 8004d5c:	4770      	bx	lr

08004d5e <UTIL_SEQ_PostIdle>:
 8004d5e:	4770      	bx	lr

08004d60 <SEQ_BitPosition>:
 8004d60:	0c03      	lsrs	r3, r0, #16
 8004d62:	041b      	lsls	r3, r3, #16
 8004d64:	b9c3      	cbnz	r3, 8004d98 <SEQ_BitPosition+0x38>
 8004d66:	0400      	lsls	r0, r0, #16
 8004d68:	2310      	movs	r3, #16
 8004d6a:	f010 4f7f 	tst.w	r0, #4278190080	; 0xff000000
 8004d6e:	bf02      	ittt	eq
 8004d70:	3308      	addeq	r3, #8
 8004d72:	0200      	lsleq	r0, r0, #8
 8004d74:	b2db      	uxtbeq	r3, r3
 8004d76:	f010 4f70 	tst.w	r0, #4026531840	; 0xf0000000
 8004d7a:	bf08      	it	eq
 8004d7c:	0100      	lsleq	r0, r0, #4
 8004d7e:	4a07      	ldr	r2, [pc, #28]	; (8004d9c <SEQ_BitPosition+0x3c>)
 8004d80:	ea4f 7010 	mov.w	r0, r0, lsr #28
 8004d84:	bf08      	it	eq
 8004d86:	3304      	addeq	r3, #4
 8004d88:	5c10      	ldrb	r0, [r2, r0]
 8004d8a:	bf08      	it	eq
 8004d8c:	b2db      	uxtbeq	r3, r3
 8004d8e:	f1c3 031f 	rsb	r3, r3, #31
 8004d92:	1a18      	subs	r0, r3, r0
 8004d94:	b2c0      	uxtb	r0, r0
 8004d96:	4770      	bx	lr
 8004d98:	2300      	movs	r3, #0
 8004d9a:	e7e6      	b.n	8004d6a <SEQ_BitPosition+0xa>
 8004d9c:	08008acf 	.word	0x08008acf

08004da0 <UTIL_SEQ_Run>:
 8004da0:	e92d 47f0 	stmdb	sp!, {r4, r5, r6, r7, r8, r9, sl, lr}
 8004da4:	4c3c      	ldr	r4, [pc, #240]	; (8004e98 <UTIL_SEQ_Run+0xf8>)
 8004da6:	4f3d      	ldr	r7, [pc, #244]	; (8004e9c <UTIL_SEQ_Run+0xfc>)
 8004da8:	6825      	ldr	r5, [r4, #0]
 8004daa:	683a      	ldr	r2, [r7, #0]
 8004dac:	4e3c      	ldr	r6, [pc, #240]	; (8004ea0 <UTIL_SEQ_Run+0x100>)
 8004dae:	f8df 8104 	ldr.w	r8, [pc, #260]	; 8004eb4 <UTIL_SEQ_Run+0x114>
 8004db2:	4028      	ands	r0, r5
 8004db4:	6020      	str	r0, [r4, #0]
 8004db6:	6833      	ldr	r3, [r6, #0]
 8004db8:	f8d4 c000 	ldr.w	ip, [r4]
 8004dbc:	ea03 030c 	and.w	r3, r3, ip
 8004dc0:	4213      	tst	r3, r2
 8004dc2:	d04b      	beq.n	8004e5c <UTIL_SEQ_Run+0xbc>
 8004dc4:	4b37      	ldr	r3, [pc, #220]	; (8004ea4 <UTIL_SEQ_Run+0x104>)
 8004dc6:	681a      	ldr	r2, [r3, #0]
 8004dc8:	4b37      	ldr	r3, [pc, #220]	; (8004ea8 <UTIL_SEQ_Run+0x108>)
 8004dca:	681b      	ldr	r3, [r3, #0]
 8004dcc:	4013      	ands	r3, r2
 8004dce:	d145      	bne.n	8004e5c <UTIL_SEQ_Run+0xbc>
 8004dd0:	4936      	ldr	r1, [pc, #216]	; (8004eac <UTIL_SEQ_Run+0x10c>)
 8004dd2:	6830      	ldr	r0, [r6, #0]
 8004dd4:	680a      	ldr	r2, [r1, #0]
 8004dd6:	ea0c 0e02 	and.w	lr, ip, r2
 8004dda:	ea1e 0f00 	tst.w	lr, r0
 8004dde:	d102      	bne.n	8004de6 <UTIL_SEQ_Run+0x46>
 8004de0:	688a      	ldr	r2, [r1, #8]
 8004de2:	6833      	ldr	r3, [r6, #0]
 8004de4:	2301      	movs	r3, #1
 8004de6:	6830      	ldr	r0, [r6, #0]
 8004de8:	ea4f 09c3 	mov.w	r9, r3, lsl #3
 8004dec:	eb01 03c3 	add.w	r3, r1, r3, lsl #3
 8004df0:	ea00 000c 	and.w	r0, r0, ip
 8004df4:	4010      	ands	r0, r2
 8004df6:	685a      	ldr	r2, [r3, #4]
 8004df8:	4210      	tst	r0, r2
 8004dfa:	bf08      	it	eq
 8004dfc:	f04f 32ff 	moveq.w	r2, #4294967295
 8004e00:	4489      	add	r9, r1
 8004e02:	bf08      	it	eq
 8004e04:	605a      	streq	r2, [r3, #4]
 8004e06:	f8d9 a004 	ldr.w	sl, [r9, #4]
 8004e0a:	ea0a 0000 	and.w	r0, sl, r0
 8004e0e:	f7ff ffa7 	bl	8004d60 <SEQ_BitPosition>
 8004e12:	2301      	movs	r3, #1
 8004e14:	f8c8 0000 	str.w	r0, [r8]
 8004e18:	fa03 f000 	lsl.w	r0, r3, r0
 8004e1c:	ea2a 0000 	bic.w	r0, sl, r0
 8004e20:	f8c9 0004 	str.w	r0, [r9, #4]
 8004e24:	f3ef 8010 	mrs	r0, PRIMASK
 8004e28:	b672      	cpsid	i
 8004e2a:	f8d8 2000 	ldr.w	r2, [r8]
 8004e2e:	4093      	lsls	r3, r2
 8004e30:	683a      	ldr	r2, [r7, #0]
 8004e32:	ea22 0203 	bic.w	r2, r2, r3
 8004e36:	603a      	str	r2, [r7, #0]
 8004e38:	688a      	ldr	r2, [r1, #8]
 8004e3a:	ea22 0203 	bic.w	r2, r2, r3
 8004e3e:	608a      	str	r2, [r1, #8]
 8004e40:	680a      	ldr	r2, [r1, #0]
 8004e42:	ea22 0303 	bic.w	r3, r2, r3
 8004e46:	600b      	str	r3, [r1, #0]
 8004e48:	f380 8810 	msr	PRIMASK, r0
 8004e4c:	4b18      	ldr	r3, [pc, #96]	; (8004eb0 <UTIL_SEQ_Run+0x110>)
 8004e4e:	f8d8 2000 	ldr.w	r2, [r8]
 8004e52:	f853 3022 	ldr.w	r3, [r3, r2, lsl #2]
 8004e56:	4798      	blx	r3
 8004e58:	683a      	ldr	r2, [r7, #0]
 8004e5a:	e7ac      	b.n	8004db6 <UTIL_SEQ_Run+0x16>
 8004e5c:	f04f 33ff 	mov.w	r3, #4294967295
 8004e60:	f8c8 3000 	str.w	r3, [r8]
 8004e64:	f7ff ff7a 	bl	8004d5c <UTIL_SEQ_PreIdle>
 8004e68:	f3ef 8810 	mrs	r8, PRIMASK
 8004e6c:	b672      	cpsid	i
 8004e6e:	683a      	ldr	r2, [r7, #0]
 8004e70:	6833      	ldr	r3, [r6, #0]
 8004e72:	4013      	ands	r3, r2
 8004e74:	6822      	ldr	r2, [r4, #0]
 8004e76:	4213      	tst	r3, r2
 8004e78:	d107      	bne.n	8004e8a <UTIL_SEQ_Run+0xea>
 8004e7a:	4b0a      	ldr	r3, [pc, #40]	; (8004ea4 <UTIL_SEQ_Run+0x104>)
 8004e7c:	681a      	ldr	r2, [r3, #0]
 8004e7e:	4b0a      	ldr	r3, [pc, #40]	; (8004ea8 <UTIL_SEQ_Run+0x108>)
 8004e80:	681b      	ldr	r3, [r3, #0]
 8004e82:	421a      	tst	r2, r3
 8004e84:	d101      	bne.n	8004e8a <UTIL_SEQ_Run+0xea>
 8004e86:	f7fb fd1f 	bl	80008c8 <UTIL_SEQ_Idle>
 8004e8a:	f388 8810 	msr	PRIMASK, r8
 8004e8e:	f7ff ff66 	bl	8004d5e <UTIL_SEQ_PostIdle>
 8004e92:	6025      	str	r5, [r4, #0]
 8004e94:	e8bd 87f0 	ldmia.w	sp!, {r4, r5, r6, r7, r8, r9, sl, pc}
 8004e98:	20000038 	.word	0x20000038
 8004e9c:	200009dc 	.word	0x200009dc
 8004ea0:	2000003c 	.word	0x2000003c
 8004ea4:	20000944 	.word	0x20000944
 8004ea8:	20000948 	.word	0x20000948
 8004eac:	200009cc 	.word	0x200009cc
 8004eb0:	2000094c 	.word	0x2000094c
 8004eb4:	20000940 	.word	0x20000940

08004eb8 <UTIL_SEQ_WaitEvt>:
 8004eb8:	e92d 43f8 	stmdb	sp!, {r3, r4, r5, r6, r7, r8, r9, lr}
 8004ebc:	f8df 8050 	ldr.w	r8, [pc, #80]	; 8004f10 <UTIL_SEQ_WaitEvt+0x58>
 8004ec0:	4c11      	ldr	r4, [pc, #68]	; (8004f08 <UTIL_SEQ_WaitEvt+0x50>)
 8004ec2:	f8d8 7000 	ldr.w	r7, [r8]
 8004ec6:	4e11      	ldr	r6, [pc, #68]	; (8004f0c <UTIL_SEQ_WaitEvt+0x54>)
 8004ec8:	f8d4 9000 	ldr.w	r9, [r4]
 8004ecc:	6020      	str	r0, [r4, #0]
 8004ece:	1c7b      	adds	r3, r7, #1
 8004ed0:	bf1a      	itte	ne
 8004ed2:	2501      	movne	r5, #1
 8004ed4:	40bd      	lslne	r5, r7
 8004ed6:	2500      	moveq	r5, #0
 8004ed8:	6833      	ldr	r3, [r6, #0]
 8004eda:	6821      	ldr	r1, [r4, #0]
 8004edc:	420b      	tst	r3, r1
 8004ede:	d00f      	beq.n	8004f00 <UTIL_SEQ_WaitEvt+0x48>
 8004ee0:	f8c8 7000 	str.w	r7, [r8]
 8004ee4:	f3ef 8210 	mrs	r2, PRIMASK
 8004ee8:	b672      	cpsid	i
 8004eea:	6833      	ldr	r3, [r6, #0]
 8004eec:	6821      	ldr	r1, [r4, #0]
 8004eee:	ea23 0301 	bic.w	r3, r3, r1
 8004ef2:	6033      	str	r3, [r6, #0]
 8004ef4:	f382 8810 	msr	PRIMASK, r2
 8004ef8:	f8c4 9000 	str.w	r9, [r4]
 8004efc:	e8bd 83f8 	ldmia.w	sp!, {r3, r4, r5, r6, r7, r8, r9, pc}
 8004f00:	4628      	mov	r0, r5
 8004f02:	f7fb fce2 	bl	80008ca <UTIL_SEQ_EvtIdle>
 8004f06:	e7e7      	b.n	8004ed8 <UTIL_SEQ_WaitEvt+0x20>
 8004f08:	20000948 	.word	0x20000948
 8004f0c:	20000944 	.word	0x20000944
 8004f10:	20000940 	.word	0x20000940

08004f14 <UTIL_SEQ_RegTask>:
 8004f14:	b510      	push	{r4, lr}
 8004f16:	4611      	mov	r1, r2
 8004f18:	f3ef 8410 	mrs	r4, PRIMASK
 8004f1c:	b672      	cpsid	i
 8004f1e:	f7ff ff1f 	bl	8004d60 <SEQ_BitPosition>
 8004f22:	4b03      	ldr	r3, [pc, #12]	; (8004f30 <UTIL_SEQ_RegTask+0x1c>)
 8004f24:	f843 1020 	str.w	r1, [r3, r0, lsl #2]
 8004f28:	f384 8810 	msr	PRIMASK, r4
 8004f2c:	bd10      	pop	{r4, pc}
 8004f2e:	bf00      	nop
 8004f30:	2000094c 	.word	0x2000094c

08004f34 <__errno>:
 8004f34:	4b01      	ldr	r3, [pc, #4]	; (8004f3c <__errno+0x8>)
 8004f36:	6818      	ldr	r0, [r3, #0]
 8004f38:	4770      	bx	lr
 8004f3a:	bf00      	nop
 8004f3c:	20000040 	.word	0x20000040

08004f40 <__libc_init_array>:
 8004f40:	b570      	push	{r4, r5, r6, lr}
 8004f42:	4d0d      	ldr	r5, [pc, #52]	; (8004f78 <__libc_init_array+0x38>)
 8004f44:	4c0d      	ldr	r4, [pc, #52]	; (8004f7c <__libc_init_array+0x3c>)
 8004f46:	1b64      	subs	r4, r4, r5
 8004f48:	10a4      	asrs	r4, r4, #2
 8004f4a:	2600      	movs	r6, #0
 8004f4c:	42a6      	cmp	r6, r4
 8004f4e:	d109      	bne.n	8004f64 <__libc_init_array+0x24>
 8004f50:	4d0b      	ldr	r5, [pc, #44]	; (8004f80 <__libc_init_array+0x40>)
 8004f52:	4c0c      	ldr	r4, [pc, #48]	; (8004f84 <__libc_init_array+0x44>)
 8004f54:	f000 fc96 	bl	8005884 <_init>
 8004f58:	1b64      	subs	r4, r4, r5
 8004f5a:	10a4      	asrs	r4, r4, #2
 8004f5c:	2600      	movs	r6, #0
 8004f5e:	42a6      	cmp	r6, r4
 8004f60:	d105      	bne.n	8004f6e <__libc_init_array+0x2e>
 8004f62:	bd70      	pop	{r4, r5, r6, pc}
 8004f64:	f855 3b04 	ldr.w	r3, [r5], #4
 8004f68:	4798      	blx	r3
 8004f6a:	3601      	adds	r6, #1
 8004f6c:	e7ee      	b.n	8004f4c <__libc_init_array+0xc>
 8004f6e:	f855 3b04 	ldr.w	r3, [r5], #4
 8004f72:	4798      	blx	r3
 8004f74:	3601      	adds	r6, #1
 8004f76:	e7f2      	b.n	8004f5e <__libc_init_array+0x1e>
 8004f78:	08008b7c 	.word	0x08008b7c
 8004f7c:	08008b7c 	.word	0x08008b7c
 8004f80:	08008b7c 	.word	0x08008b7c
 8004f84:	08008b80 	.word	0x08008b80

08004f88 <memcpy>:
 8004f88:	440a      	add	r2, r1
 8004f8a:	4291      	cmp	r1, r2
 8004f8c:	f100 33ff 	add.w	r3, r0, #4294967295
 8004f90:	d100      	bne.n	8004f94 <memcpy+0xc>
 8004f92:	4770      	bx	lr
 8004f94:	b510      	push	{r4, lr}
 8004f96:	f811 4b01 	ldrb.w	r4, [r1], #1
 8004f9a:	f803 4f01 	strb.w	r4, [r3, #1]!
 8004f9e:	4291      	cmp	r1, r2
 8004fa0:	d1f9      	bne.n	8004f96 <memcpy+0xe>
 8004fa2:	bd10      	pop	{r4, pc}

08004fa4 <memmove>:
 8004fa4:	4288      	cmp	r0, r1
 8004fa6:	b510      	push	{r4, lr}
 8004fa8:	eb01 0402 	add.w	r4, r1, r2
 8004fac:	d902      	bls.n	8004fb4 <memmove+0x10>
 8004fae:	4284      	cmp	r4, r0
 8004fb0:	4623      	mov	r3, r4
 8004fb2:	d807      	bhi.n	8004fc4 <memmove+0x20>
 8004fb4:	1e43      	subs	r3, r0, #1
 8004fb6:	42a1      	cmp	r1, r4
 8004fb8:	d008      	beq.n	8004fcc <memmove+0x28>
 8004fba:	f811 2b01 	ldrb.w	r2, [r1], #1
 8004fbe:	f803 2f01 	strb.w	r2, [r3, #1]!
 8004fc2:	e7f8      	b.n	8004fb6 <memmove+0x12>
 8004fc4:	4402      	add	r2, r0
 8004fc6:	4601      	mov	r1, r0
 8004fc8:	428a      	cmp	r2, r1
 8004fca:	d100      	bne.n	8004fce <memmove+0x2a>
 8004fcc:	bd10      	pop	{r4, pc}
 8004fce:	f813 4d01 	ldrb.w	r4, [r3, #-1]!
 8004fd2:	f802 4d01 	strb.w	r4, [r2, #-1]!
 8004fd6:	e7f7      	b.n	8004fc8 <memmove+0x24>

08004fd8 <memset>:
 8004fd8:	4402      	add	r2, r0
 8004fda:	4603      	mov	r3, r0
 8004fdc:	4293      	cmp	r3, r2
 8004fde:	d100      	bne.n	8004fe2 <memset+0xa>
 8004fe0:	4770      	bx	lr
 8004fe2:	f803 1b01 	strb.w	r1, [r3], #1
 8004fe6:	e7f9      	b.n	8004fdc <memset+0x4>

08004fe8 <siprintf>:
 8004fe8:	b40e      	push	{r1, r2, r3}
 8004fea:	b500      	push	{lr}
 8004fec:	b09c      	sub	sp, #112	; 0x70
 8004fee:	ab1d      	add	r3, sp, #116	; 0x74
 8004ff0:	9002      	str	r0, [sp, #8]
 8004ff2:	9006      	str	r0, [sp, #24]
 8004ff4:	f06f 4100 	mvn.w	r1, #2147483648	; 0x80000000
 8004ff8:	4809      	ldr	r0, [pc, #36]	; (8005020 <siprintf+0x38>)
 8004ffa:	9107      	str	r1, [sp, #28]
 8004ffc:	9104      	str	r1, [sp, #16]
 8004ffe:	4909      	ldr	r1, [pc, #36]	; (8005024 <siprintf+0x3c>)
 8005000:	f853 2b04 	ldr.w	r2, [r3], #4
 8005004:	9105      	str	r1, [sp, #20]
 8005006:	6800      	ldr	r0, [r0, #0]
 8005008:	9301      	str	r3, [sp, #4]
 800500a:	a902      	add	r1, sp, #8
 800500c:	f000 f906 	bl	800521c <_svfiprintf_r>
 8005010:	9b02      	ldr	r3, [sp, #8]
 8005012:	2200      	movs	r2, #0
 8005014:	701a      	strb	r2, [r3, #0]
 8005016:	b01c      	add	sp, #112	; 0x70
 8005018:	f85d eb04 	ldr.w	lr, [sp], #4
 800501c:	b003      	add	sp, #12
 800501e:	4770      	bx	lr
 8005020:	20000040 	.word	0x20000040
 8005024:	ffff0208 	.word	0xffff0208

08005028 <strcpy>:
 8005028:	4603      	mov	r3, r0
 800502a:	f811 2b01 	ldrb.w	r2, [r1], #1
 800502e:	f803 2b01 	strb.w	r2, [r3], #1
 8005032:	2a00      	cmp	r2, #0
 8005034:	d1f9      	bne.n	800502a <strcpy+0x2>
 8005036:	4770      	bx	lr

08005038 <__retarget_lock_acquire_recursive>:
 8005038:	4770      	bx	lr

0800503a <__retarget_lock_release_recursive>:
 800503a:	4770      	bx	lr

0800503c <sbrk_aligned>:
 800503c:	b570      	push	{r4, r5, r6, lr}
 800503e:	4e0e      	ldr	r6, [pc, #56]	; (8005078 <sbrk_aligned+0x3c>)
 8005040:	460c      	mov	r4, r1
 8005042:	6831      	ldr	r1, [r6, #0]
 8005044:	4605      	mov	r5, r0
 8005046:	b911      	cbnz	r1, 800504e <sbrk_aligned+0x12>
 8005048:	f000 fb7c 	bl	8005744 <_sbrk_r>
 800504c:	6030      	str	r0, [r6, #0]
 800504e:	4621      	mov	r1, r4
 8005050:	4628      	mov	r0, r5
 8005052:	f000 fb77 	bl	8005744 <_sbrk_r>
 8005056:	1c43      	adds	r3, r0, #1
 8005058:	d00a      	beq.n	8005070 <sbrk_aligned+0x34>
 800505a:	1cc4      	adds	r4, r0, #3
 800505c:	f024 0403 	bic.w	r4, r4, #3
 8005060:	42a0      	cmp	r0, r4
 8005062:	d007      	beq.n	8005074 <sbrk_aligned+0x38>
 8005064:	1a21      	subs	r1, r4, r0
 8005066:	4628      	mov	r0, r5
 8005068:	f000 fb6c 	bl	8005744 <_sbrk_r>
 800506c:	3001      	adds	r0, #1
 800506e:	d101      	bne.n	8005074 <sbrk_aligned+0x38>
 8005070:	f04f 34ff 	mov.w	r4, #4294967295
 8005074:	4620      	mov	r0, r4
 8005076:	bd70      	pop	{r4, r5, r6, pc}
 8005078:	200009e8 	.word	0x200009e8

0800507c <_malloc_r>:
 800507c:	e92d 41f0 	stmdb	sp!, {r4, r5, r6, r7, r8, lr}
 8005080:	1ccd      	adds	r5, r1, #3
 8005082:	f025 0503 	bic.w	r5, r5, #3
 8005086:	3508      	adds	r5, #8
 8005088:	2d0c      	cmp	r5, #12
 800508a:	bf38      	it	cc
 800508c:	250c      	movcc	r5, #12
 800508e:	2d00      	cmp	r5, #0
 8005090:	4607      	mov	r7, r0
 8005092:	db01      	blt.n	8005098 <_malloc_r+0x1c>
 8005094:	42a9      	cmp	r1, r5
 8005096:	d905      	bls.n	80050a4 <_malloc_r+0x28>
 8005098:	230c      	movs	r3, #12
 800509a:	603b      	str	r3, [r7, #0]
 800509c:	2600      	movs	r6, #0
 800509e:	4630      	mov	r0, r6
 80050a0:	e8bd 81f0 	ldmia.w	sp!, {r4, r5, r6, r7, r8, pc}
 80050a4:	4e2e      	ldr	r6, [pc, #184]	; (8005160 <_malloc_r+0xe4>)
 80050a6:	f000 fb5d 	bl	8005764 <__malloc_lock>
 80050aa:	6833      	ldr	r3, [r6, #0]
 80050ac:	461c      	mov	r4, r3
 80050ae:	bb34      	cbnz	r4, 80050fe <_malloc_r+0x82>
 80050b0:	4629      	mov	r1, r5
 80050b2:	4638      	mov	r0, r7
 80050b4:	f7ff ffc2 	bl	800503c <sbrk_aligned>
 80050b8:	1c43      	adds	r3, r0, #1
 80050ba:	4604      	mov	r4, r0
 80050bc:	d14d      	bne.n	800515a <_malloc_r+0xde>
 80050be:	6834      	ldr	r4, [r6, #0]
 80050c0:	4626      	mov	r6, r4
 80050c2:	2e00      	cmp	r6, #0
 80050c4:	d140      	bne.n	8005148 <_malloc_r+0xcc>
 80050c6:	6823      	ldr	r3, [r4, #0]
 80050c8:	4631      	mov	r1, r6
 80050ca:	4638      	mov	r0, r7
 80050cc:	eb04 0803 	add.w	r8, r4, r3
 80050d0:	f000 fb38 	bl	8005744 <_sbrk_r>
 80050d4:	4580      	cmp	r8, r0
 80050d6:	d13a      	bne.n	800514e <_malloc_r+0xd2>
 80050d8:	6821      	ldr	r1, [r4, #0]
 80050da:	3503      	adds	r5, #3
 80050dc:	1a6d      	subs	r5, r5, r1
 80050de:	f025 0503 	bic.w	r5, r5, #3
 80050e2:	3508      	adds	r5, #8
 80050e4:	2d0c      	cmp	r5, #12
 80050e6:	bf38      	it	cc
 80050e8:	250c      	movcc	r5, #12
 80050ea:	4629      	mov	r1, r5
 80050ec:	4638      	mov	r0, r7
 80050ee:	f7ff ffa5 	bl	800503c <sbrk_aligned>
 80050f2:	3001      	adds	r0, #1
 80050f4:	d02b      	beq.n	800514e <_malloc_r+0xd2>
 80050f6:	6823      	ldr	r3, [r4, #0]
 80050f8:	442b      	add	r3, r5
 80050fa:	6023      	str	r3, [r4, #0]
 80050fc:	e00e      	b.n	800511c <_malloc_r+0xa0>
 80050fe:	6822      	ldr	r2, [r4, #0]
 8005100:	1b52      	subs	r2, r2, r5
 8005102:	d41e      	bmi.n	8005142 <_malloc_r+0xc6>
 8005104:	2a0b      	cmp	r2, #11
 8005106:	d916      	bls.n	8005136 <_malloc_r+0xba>
 8005108:	1961      	adds	r1, r4, r5
 800510a:	42a3      	cmp	r3, r4
 800510c:	6025      	str	r5, [r4, #0]
 800510e:	bf18      	it	ne
 8005110:	6059      	strne	r1, [r3, #4]
 8005112:	6863      	ldr	r3, [r4, #4]
 8005114:	bf08      	it	eq
 8005116:	6031      	streq	r1, [r6, #0]
 8005118:	5162      	str	r2, [r4, r5]
 800511a:	604b      	str	r3, [r1, #4]
 800511c:	4638      	mov	r0, r7
 800511e:	f104 060b 	add.w	r6, r4, #11
 8005122:	f000 fb25 	bl	8005770 <__malloc_unlock>
 8005126:	f026 0607 	bic.w	r6, r6, #7
 800512a:	1d23      	adds	r3, r4, #4
 800512c:	1af2      	subs	r2, r6, r3
 800512e:	d0b6      	beq.n	800509e <_malloc_r+0x22>
 8005130:	1b9b      	subs	r3, r3, r6
 8005132:	50a3      	str	r3, [r4, r2]
 8005134:	e7b3      	b.n	800509e <_malloc_r+0x22>
 8005136:	6862      	ldr	r2, [r4, #4]
 8005138:	42a3      	cmp	r3, r4
 800513a:	bf0c      	ite	eq
 800513c:	6032      	streq	r2, [r6, #0]
 800513e:	605a      	strne	r2, [r3, #4]
 8005140:	e7ec      	b.n	800511c <_malloc_r+0xa0>
 8005142:	4623      	mov	r3, r4
 8005144:	6864      	ldr	r4, [r4, #4]
 8005146:	e7b2      	b.n	80050ae <_malloc_r+0x32>
 8005148:	4634      	mov	r4, r6
 800514a:	6876      	ldr	r6, [r6, #4]
 800514c:	e7b9      	b.n	80050c2 <_malloc_r+0x46>
 800514e:	230c      	movs	r3, #12
 8005150:	603b      	str	r3, [r7, #0]
 8005152:	4638      	mov	r0, r7
 8005154:	f000 fb0c 	bl	8005770 <__malloc_unlock>
 8005158:	e7a1      	b.n	800509e <_malloc_r+0x22>
 800515a:	6025      	str	r5, [r4, #0]
 800515c:	e7de      	b.n	800511c <_malloc_r+0xa0>
 800515e:	bf00      	nop
 8005160:	200009e4 	.word	0x200009e4

08005164 <__ssputs_r>:
 8005164:	e92d 47f0 	stmdb	sp!, {r4, r5, r6, r7, r8, r9, sl, lr}
 8005168:	688e      	ldr	r6, [r1, #8]
 800516a:	429e      	cmp	r6, r3
 800516c:	4682      	mov	sl, r0
 800516e:	460c      	mov	r4, r1
 8005170:	4690      	mov	r8, r2
 8005172:	461f      	mov	r7, r3
 8005174:	d838      	bhi.n	80051e8 <__ssputs_r+0x84>
 8005176:	898a      	ldrh	r2, [r1, #12]
 8005178:	f412 6f90 	tst.w	r2, #1152	; 0x480
 800517c:	d032      	beq.n	80051e4 <__ssputs_r+0x80>
 800517e:	6825      	ldr	r5, [r4, #0]
 8005180:	6909      	ldr	r1, [r1, #16]
 8005182:	eba5 0901 	sub.w	r9, r5, r1
 8005186:	6965      	ldr	r5, [r4, #20]
 8005188:	eb05 0545 	add.w	r5, r5, r5, lsl #1
 800518c:	eb05 75d5 	add.w	r5, r5, r5, lsr #31
 8005190:	3301      	adds	r3, #1
 8005192:	444b      	add	r3, r9
 8005194:	106d      	asrs	r5, r5, #1
 8005196:	429d      	cmp	r5, r3
 8005198:	bf38      	it	cc
 800519a:	461d      	movcc	r5, r3
 800519c:	0553      	lsls	r3, r2, #21
 800519e:	d531      	bpl.n	8005204 <__ssputs_r+0xa0>
 80051a0:	4629      	mov	r1, r5
 80051a2:	f7ff ff6b 	bl	800507c <_malloc_r>
 80051a6:	4606      	mov	r6, r0
 80051a8:	b950      	cbnz	r0, 80051c0 <__ssputs_r+0x5c>
 80051aa:	230c      	movs	r3, #12
 80051ac:	f8ca 3000 	str.w	r3, [sl]
 80051b0:	89a3      	ldrh	r3, [r4, #12]
 80051b2:	f043 0340 	orr.w	r3, r3, #64	; 0x40
 80051b6:	81a3      	strh	r3, [r4, #12]
 80051b8:	f04f 30ff 	mov.w	r0, #4294967295
 80051bc:	e8bd 87f0 	ldmia.w	sp!, {r4, r5, r6, r7, r8, r9, sl, pc}
 80051c0:	6921      	ldr	r1, [r4, #16]
 80051c2:	464a      	mov	r2, r9
 80051c4:	f7ff fee0 	bl	8004f88 <memcpy>
 80051c8:	89a3      	ldrh	r3, [r4, #12]
 80051ca:	f423 6390 	bic.w	r3, r3, #1152	; 0x480
 80051ce:	f043 0380 	orr.w	r3, r3, #128	; 0x80
 80051d2:	81a3      	strh	r3, [r4, #12]
 80051d4:	6126      	str	r6, [r4, #16]
 80051d6:	6165      	str	r5, [r4, #20]
 80051d8:	444e      	add	r6, r9
 80051da:	eba5 0509 	sub.w	r5, r5, r9
 80051de:	6026      	str	r6, [r4, #0]
 80051e0:	60a5      	str	r5, [r4, #8]
 80051e2:	463e      	mov	r6, r7
 80051e4:	42be      	cmp	r6, r7
 80051e6:	d900      	bls.n	80051ea <__ssputs_r+0x86>
 80051e8:	463e      	mov	r6, r7
 80051ea:	6820      	ldr	r0, [r4, #0]
 80051ec:	4632      	mov	r2, r6
 80051ee:	4641      	mov	r1, r8
 80051f0:	f7ff fed8 	bl	8004fa4 <memmove>
 80051f4:	68a3      	ldr	r3, [r4, #8]
 80051f6:	1b9b      	subs	r3, r3, r6
 80051f8:	60a3      	str	r3, [r4, #8]
 80051fa:	6823      	ldr	r3, [r4, #0]
 80051fc:	4433      	add	r3, r6
 80051fe:	6023      	str	r3, [r4, #0]
 8005200:	2000      	movs	r0, #0
 8005202:	e7db      	b.n	80051bc <__ssputs_r+0x58>
 8005204:	462a      	mov	r2, r5
 8005206:	f000 fb05 	bl	8005814 <_realloc_r>
 800520a:	4606      	mov	r6, r0
 800520c:	2800      	cmp	r0, #0
 800520e:	d1e1      	bne.n	80051d4 <__ssputs_r+0x70>
 8005210:	6921      	ldr	r1, [r4, #16]
 8005212:	4650      	mov	r0, sl
 8005214:	f000 fab2 	bl	800577c <_free_r>
 8005218:	e7c7      	b.n	80051aa <__ssputs_r+0x46>
	...

0800521c <_svfiprintf_r>:
 800521c:	e92d 4ff0 	stmdb	sp!, {r4, r5, r6, r7, r8, r9, sl, fp, lr}
 8005220:	4698      	mov	r8, r3
 8005222:	898b      	ldrh	r3, [r1, #12]
 8005224:	061b      	lsls	r3, r3, #24
 8005226:	b09d      	sub	sp, #116	; 0x74
 8005228:	4607      	mov	r7, r0
 800522a:	460d      	mov	r5, r1
 800522c:	4614      	mov	r4, r2
 800522e:	d50e      	bpl.n	800524e <_svfiprintf_r+0x32>
 8005230:	690b      	ldr	r3, [r1, #16]
 8005232:	b963      	cbnz	r3, 800524e <_svfiprintf_r+0x32>
 8005234:	2140      	movs	r1, #64	; 0x40
 8005236:	f7ff ff21 	bl	800507c <_malloc_r>
 800523a:	6028      	str	r0, [r5, #0]
 800523c:	6128      	str	r0, [r5, #16]
 800523e:	b920      	cbnz	r0, 800524a <_svfiprintf_r+0x2e>
 8005240:	230c      	movs	r3, #12
 8005242:	603b      	str	r3, [r7, #0]
 8005244:	f04f 30ff 	mov.w	r0, #4294967295
 8005248:	e0d1      	b.n	80053ee <_svfiprintf_r+0x1d2>
 800524a:	2340      	movs	r3, #64	; 0x40
 800524c:	616b      	str	r3, [r5, #20]
 800524e:	2300      	movs	r3, #0
 8005250:	9309      	str	r3, [sp, #36]	; 0x24
 8005252:	2320      	movs	r3, #32
 8005254:	f88d 3029 	strb.w	r3, [sp, #41]	; 0x29
 8005258:	f8cd 800c 	str.w	r8, [sp, #12]
 800525c:	2330      	movs	r3, #48	; 0x30
 800525e:	f8df 81a8 	ldr.w	r8, [pc, #424]	; 8005408 <_svfiprintf_r+0x1ec>
 8005262:	f88d 302a 	strb.w	r3, [sp, #42]	; 0x2a
 8005266:	f04f 0901 	mov.w	r9, #1
 800526a:	4623      	mov	r3, r4
 800526c:	469a      	mov	sl, r3
 800526e:	f813 2b01 	ldrb.w	r2, [r3], #1
 8005272:	b10a      	cbz	r2, 8005278 <_svfiprintf_r+0x5c>
 8005274:	2a25      	cmp	r2, #37	; 0x25
 8005276:	d1f9      	bne.n	800526c <_svfiprintf_r+0x50>
 8005278:	ebba 0b04 	subs.w	fp, sl, r4
 800527c:	d00b      	beq.n	8005296 <_svfiprintf_r+0x7a>
 800527e:	465b      	mov	r3, fp
 8005280:	4622      	mov	r2, r4
 8005282:	4629      	mov	r1, r5
 8005284:	4638      	mov	r0, r7
 8005286:	f7ff ff6d 	bl	8005164 <__ssputs_r>
 800528a:	3001      	adds	r0, #1
 800528c:	f000 80aa 	beq.w	80053e4 <_svfiprintf_r+0x1c8>
 8005290:	9a09      	ldr	r2, [sp, #36]	; 0x24
 8005292:	445a      	add	r2, fp
 8005294:	9209      	str	r2, [sp, #36]	; 0x24
 8005296:	f89a 3000 	ldrb.w	r3, [sl]
 800529a:	2b00      	cmp	r3, #0
 800529c:	f000 80a2 	beq.w	80053e4 <_svfiprintf_r+0x1c8>
 80052a0:	2300      	movs	r3, #0
 80052a2:	f04f 32ff 	mov.w	r2, #4294967295
 80052a6:	e9cd 2305 	strd	r2, r3, [sp, #20]
 80052aa:	f10a 0a01 	add.w	sl, sl, #1
 80052ae:	9304      	str	r3, [sp, #16]
 80052b0:	9307      	str	r3, [sp, #28]
 80052b2:	f88d 3053 	strb.w	r3, [sp, #83]	; 0x53
 80052b6:	931a      	str	r3, [sp, #104]	; 0x68
 80052b8:	4654      	mov	r4, sl
 80052ba:	2205      	movs	r2, #5
 80052bc:	f814 1b01 	ldrb.w	r1, [r4], #1
 80052c0:	4851      	ldr	r0, [pc, #324]	; (8005408 <_svfiprintf_r+0x1ec>)
 80052c2:	f7fa ff65 	bl	8000190 <memchr>
 80052c6:	9a04      	ldr	r2, [sp, #16]
 80052c8:	b9d8      	cbnz	r0, 8005302 <_svfiprintf_r+0xe6>
 80052ca:	06d0      	lsls	r0, r2, #27
 80052cc:	bf44      	itt	mi
 80052ce:	2320      	movmi	r3, #32
 80052d0:	f88d 3053 	strbmi.w	r3, [sp, #83]	; 0x53
 80052d4:	0711      	lsls	r1, r2, #28
 80052d6:	bf44      	itt	mi
 80052d8:	232b      	movmi	r3, #43	; 0x2b
 80052da:	f88d 3053 	strbmi.w	r3, [sp, #83]	; 0x53
 80052de:	f89a 3000 	ldrb.w	r3, [sl]
 80052e2:	2b2a      	cmp	r3, #42	; 0x2a
 80052e4:	d015      	beq.n	8005312 <_svfiprintf_r+0xf6>
 80052e6:	9a07      	ldr	r2, [sp, #28]
 80052e8:	4654      	mov	r4, sl
 80052ea:	2000      	movs	r0, #0
 80052ec:	f04f 0c0a 	mov.w	ip, #10
 80052f0:	4621      	mov	r1, r4
 80052f2:	f811 3b01 	ldrb.w	r3, [r1], #1
 80052f6:	3b30      	subs	r3, #48	; 0x30
 80052f8:	2b09      	cmp	r3, #9
 80052fa:	d94e      	bls.n	800539a <_svfiprintf_r+0x17e>
 80052fc:	b1b0      	cbz	r0, 800532c <_svfiprintf_r+0x110>
 80052fe:	9207      	str	r2, [sp, #28]
 8005300:	e014      	b.n	800532c <_svfiprintf_r+0x110>
 8005302:	eba0 0308 	sub.w	r3, r0, r8
 8005306:	fa09 f303 	lsl.w	r3, r9, r3
 800530a:	4313      	orrs	r3, r2
 800530c:	9304      	str	r3, [sp, #16]
 800530e:	46a2      	mov	sl, r4
 8005310:	e7d2      	b.n	80052b8 <_svfiprintf_r+0x9c>
 8005312:	9b03      	ldr	r3, [sp, #12]
 8005314:	1d19      	adds	r1, r3, #4
 8005316:	681b      	ldr	r3, [r3, #0]
 8005318:	9103      	str	r1, [sp, #12]
 800531a:	2b00      	cmp	r3, #0
 800531c:	bfbb      	ittet	lt
 800531e:	425b      	neglt	r3, r3
 8005320:	f042 0202 	orrlt.w	r2, r2, #2
 8005324:	9307      	strge	r3, [sp, #28]
 8005326:	9307      	strlt	r3, [sp, #28]
 8005328:	bfb8      	it	lt
 800532a:	9204      	strlt	r2, [sp, #16]
 800532c:	7823      	ldrb	r3, [r4, #0]
 800532e:	2b2e      	cmp	r3, #46	; 0x2e
 8005330:	d10c      	bne.n	800534c <_svfiprintf_r+0x130>
 8005332:	7863      	ldrb	r3, [r4, #1]
 8005334:	2b2a      	cmp	r3, #42	; 0x2a
 8005336:	d135      	bne.n	80053a4 <_svfiprintf_r+0x188>
 8005338:	9b03      	ldr	r3, [sp, #12]
 800533a:	1d1a      	adds	r2, r3, #4
 800533c:	681b      	ldr	r3, [r3, #0]
 800533e:	9203      	str	r2, [sp, #12]
 8005340:	2b00      	cmp	r3, #0
 8005342:	bfb8      	it	lt
 8005344:	f04f 33ff 	movlt.w	r3, #4294967295
 8005348:	3402      	adds	r4, #2
 800534a:	9305      	str	r3, [sp, #20]
 800534c:	f8df a0c8 	ldr.w	sl, [pc, #200]	; 8005418 <_svfiprintf_r+0x1fc>
 8005350:	7821      	ldrb	r1, [r4, #0]
 8005352:	2203      	movs	r2, #3
 8005354:	4650      	mov	r0, sl
 8005356:	f7fa ff1b 	bl	8000190 <memchr>
 800535a:	b140      	cbz	r0, 800536e <_svfiprintf_r+0x152>
 800535c:	2340      	movs	r3, #64	; 0x40
 800535e:	eba0 000a 	sub.w	r0, r0, sl
 8005362:	fa03 f000 	lsl.w	r0, r3, r0
 8005366:	9b04      	ldr	r3, [sp, #16]
 8005368:	4303      	orrs	r3, r0
 800536a:	3401      	adds	r4, #1
 800536c:	9304      	str	r3, [sp, #16]
 800536e:	f814 1b01 	ldrb.w	r1, [r4], #1
 8005372:	4826      	ldr	r0, [pc, #152]	; (800540c <_svfiprintf_r+0x1f0>)
 8005374:	f88d 1028 	strb.w	r1, [sp, #40]	; 0x28
 8005378:	2206      	movs	r2, #6
 800537a:	f7fa ff09 	bl	8000190 <memchr>
 800537e:	2800      	cmp	r0, #0
 8005380:	d038      	beq.n	80053f4 <_svfiprintf_r+0x1d8>
 8005382:	4b23      	ldr	r3, [pc, #140]	; (8005410 <_svfiprintf_r+0x1f4>)
 8005384:	bb1b      	cbnz	r3, 80053ce <_svfiprintf_r+0x1b2>
 8005386:	9b03      	ldr	r3, [sp, #12]
 8005388:	3307      	adds	r3, #7
 800538a:	f023 0307 	bic.w	r3, r3, #7
 800538e:	3308      	adds	r3, #8
 8005390:	9303      	str	r3, [sp, #12]
 8005392:	9b09      	ldr	r3, [sp, #36]	; 0x24
 8005394:	4433      	add	r3, r6
 8005396:	9309      	str	r3, [sp, #36]	; 0x24
 8005398:	e767      	b.n	800526a <_svfiprintf_r+0x4e>
 800539a:	fb0c 3202 	mla	r2, ip, r2, r3
 800539e:	460c      	mov	r4, r1
 80053a0:	2001      	movs	r0, #1
 80053a2:	e7a5      	b.n	80052f0 <_svfiprintf_r+0xd4>
 80053a4:	2300      	movs	r3, #0
 80053a6:	3401      	adds	r4, #1
 80053a8:	9305      	str	r3, [sp, #20]
 80053aa:	4619      	mov	r1, r3
 80053ac:	f04f 0c0a 	mov.w	ip, #10
 80053b0:	4620      	mov	r0, r4
 80053b2:	f810 2b01 	ldrb.w	r2, [r0], #1
 80053b6:	3a30      	subs	r2, #48	; 0x30
 80053b8:	2a09      	cmp	r2, #9
 80053ba:	d903      	bls.n	80053c4 <_svfiprintf_r+0x1a8>
 80053bc:	2b00      	cmp	r3, #0
 80053be:	d0c5      	beq.n	800534c <_svfiprintf_r+0x130>
 80053c0:	9105      	str	r1, [sp, #20]
 80053c2:	e7c3      	b.n	800534c <_svfiprintf_r+0x130>
 80053c4:	fb0c 2101 	mla	r1, ip, r1, r2
 80053c8:	4604      	mov	r4, r0
 80053ca:	2301      	movs	r3, #1
 80053cc:	e7f0      	b.n	80053b0 <_svfiprintf_r+0x194>
 80053ce:	ab03      	add	r3, sp, #12
 80053d0:	9300      	str	r3, [sp, #0]
 80053d2:	462a      	mov	r2, r5
 80053d4:	4b0f      	ldr	r3, [pc, #60]	; (8005414 <_svfiprintf_r+0x1f8>)
 80053d6:	a904      	add	r1, sp, #16
 80053d8:	4638      	mov	r0, r7
 80053da:	f3af 8000 	nop.w
 80053de:	1c42      	adds	r2, r0, #1
 80053e0:	4606      	mov	r6, r0
 80053e2:	d1d6      	bne.n	8005392 <_svfiprintf_r+0x176>
 80053e4:	89ab      	ldrh	r3, [r5, #12]
 80053e6:	065b      	lsls	r3, r3, #25
 80053e8:	f53f af2c 	bmi.w	8005244 <_svfiprintf_r+0x28>
 80053ec:	9809      	ldr	r0, [sp, #36]	; 0x24
 80053ee:	b01d      	add	sp, #116	; 0x74
 80053f0:	e8bd 8ff0 	ldmia.w	sp!, {r4, r5, r6, r7, r8, r9, sl, fp, pc}
 80053f4:	ab03      	add	r3, sp, #12
 80053f6:	9300      	str	r3, [sp, #0]
 80053f8:	462a      	mov	r2, r5
 80053fa:	4b06      	ldr	r3, [pc, #24]	; (8005414 <_svfiprintf_r+0x1f8>)
 80053fc:	a904      	add	r1, sp, #16
 80053fe:	4638      	mov	r0, r7
 8005400:	f000 f87a 	bl	80054f8 <_printf_i>
 8005404:	e7eb      	b.n	80053de <_svfiprintf_r+0x1c2>
 8005406:	bf00      	nop
 8005408:	08008b40 	.word	0x08008b40
 800540c:	08008b4a 	.word	0x08008b4a
 8005410:	00000000 	.word	0x00000000
 8005414:	08005165 	.word	0x08005165
 8005418:	08008b46 	.word	0x08008b46

0800541c <_printf_common>:
 800541c:	e92d 47f0 	stmdb	sp!, {r4, r5, r6, r7, r8, r9, sl, lr}
 8005420:	4616      	mov	r6, r2
 8005422:	4699      	mov	r9, r3
 8005424:	688a      	ldr	r2, [r1, #8]
 8005426:	690b      	ldr	r3, [r1, #16]
 8005428:	f8dd 8020 	ldr.w	r8, [sp, #32]
 800542c:	4293      	cmp	r3, r2
 800542e:	bfb8      	it	lt
 8005430:	4613      	movlt	r3, r2
 8005432:	6033      	str	r3, [r6, #0]
 8005434:	f891 2043 	ldrb.w	r2, [r1, #67]	; 0x43
 8005438:	4607      	mov	r7, r0
 800543a:	460c      	mov	r4, r1
 800543c:	b10a      	cbz	r2, 8005442 <_printf_common+0x26>
 800543e:	3301      	adds	r3, #1
 8005440:	6033      	str	r3, [r6, #0]
 8005442:	6823      	ldr	r3, [r4, #0]
 8005444:	0699      	lsls	r1, r3, #26
 8005446:	bf42      	ittt	mi
 8005448:	6833      	ldrmi	r3, [r6, #0]
 800544a:	3302      	addmi	r3, #2
 800544c:	6033      	strmi	r3, [r6, #0]
 800544e:	6825      	ldr	r5, [r4, #0]
 8005450:	f015 0506 	ands.w	r5, r5, #6
 8005454:	d106      	bne.n	8005464 <_printf_common+0x48>
 8005456:	f104 0a19 	add.w	sl, r4, #25
 800545a:	68e3      	ldr	r3, [r4, #12]
 800545c:	6832      	ldr	r2, [r6, #0]
 800545e:	1a9b      	subs	r3, r3, r2
 8005460:	42ab      	cmp	r3, r5
 8005462:	dc26      	bgt.n	80054b2 <_printf_common+0x96>
 8005464:	f894 2043 	ldrb.w	r2, [r4, #67]	; 0x43
 8005468:	1e13      	subs	r3, r2, #0
 800546a:	6822      	ldr	r2, [r4, #0]
 800546c:	bf18      	it	ne
 800546e:	2301      	movne	r3, #1
 8005470:	0692      	lsls	r2, r2, #26
 8005472:	d42b      	bmi.n	80054cc <_printf_common+0xb0>
 8005474:	f104 0243 	add.w	r2, r4, #67	; 0x43
 8005478:	4649      	mov	r1, r9
 800547a:	4638      	mov	r0, r7
 800547c:	47c0      	blx	r8
 800547e:	3001      	adds	r0, #1
 8005480:	d01e      	beq.n	80054c0 <_printf_common+0xa4>
 8005482:	6823      	ldr	r3, [r4, #0]
 8005484:	68e5      	ldr	r5, [r4, #12]
 8005486:	6832      	ldr	r2, [r6, #0]
 8005488:	f003 0306 	and.w	r3, r3, #6
 800548c:	2b04      	cmp	r3, #4
 800548e:	bf08      	it	eq
 8005490:	1aad      	subeq	r5, r5, r2
 8005492:	68a3      	ldr	r3, [r4, #8]
 8005494:	6922      	ldr	r2, [r4, #16]
 8005496:	bf0c      	ite	eq
 8005498:	ea25 75e5 	biceq.w	r5, r5, r5, asr #31
 800549c:	2500      	movne	r5, #0
 800549e:	4293      	cmp	r3, r2
 80054a0:	bfc4      	itt	gt
 80054a2:	1a9b      	subgt	r3, r3, r2
 80054a4:	18ed      	addgt	r5, r5, r3
 80054a6:	2600      	movs	r6, #0
 80054a8:	341a      	adds	r4, #26
 80054aa:	42b5      	cmp	r5, r6
 80054ac:	d11a      	bne.n	80054e4 <_printf_common+0xc8>
 80054ae:	2000      	movs	r0, #0
 80054b0:	e008      	b.n	80054c4 <_printf_common+0xa8>
 80054b2:	2301      	movs	r3, #1
 80054b4:	4652      	mov	r2, sl
 80054b6:	4649      	mov	r1, r9
 80054b8:	4638      	mov	r0, r7
 80054ba:	47c0      	blx	r8
 80054bc:	3001      	adds	r0, #1
 80054be:	d103      	bne.n	80054c8 <_printf_common+0xac>
 80054c0:	f04f 30ff 	mov.w	r0, #4294967295
 80054c4:	e8bd 87f0 	ldmia.w	sp!, {r4, r5, r6, r7, r8, r9, sl, pc}
 80054c8:	3501      	adds	r5, #1
 80054ca:	e7c6      	b.n	800545a <_printf_common+0x3e>
 80054cc:	18e1      	adds	r1, r4, r3
 80054ce:	1c5a      	adds	r2, r3, #1
 80054d0:	2030      	movs	r0, #48	; 0x30
 80054d2:	f881 0043 	strb.w	r0, [r1, #67]	; 0x43
 80054d6:	4422      	add	r2, r4
 80054d8:	f894 1045 	ldrb.w	r1, [r4, #69]	; 0x45
 80054dc:	f882 1043 	strb.w	r1, [r2, #67]	; 0x43
 80054e0:	3302      	adds	r3, #2
 80054e2:	e7c7      	b.n	8005474 <_printf_common+0x58>
 80054e4:	2301      	movs	r3, #1
 80054e6:	4622      	mov	r2, r4
 80054e8:	4649      	mov	r1, r9
 80054ea:	4638      	mov	r0, r7
 80054ec:	47c0      	blx	r8
 80054ee:	3001      	adds	r0, #1
 80054f0:	d0e6      	beq.n	80054c0 <_printf_common+0xa4>
 80054f2:	3601      	adds	r6, #1
 80054f4:	e7d9      	b.n	80054aa <_printf_common+0x8e>
	...

080054f8 <_printf_i>:
 80054f8:	e92d 47ff 	stmdb	sp!, {r0, r1, r2, r3, r4, r5, r6, r7, r8, r9, sl, lr}
 80054fc:	7e0f      	ldrb	r7, [r1, #24]
 80054fe:	9d0c      	ldr	r5, [sp, #48]	; 0x30
 8005500:	2f78      	cmp	r7, #120	; 0x78
 8005502:	4691      	mov	r9, r2
 8005504:	4680      	mov	r8, r0
 8005506:	460c      	mov	r4, r1
 8005508:	469a      	mov	sl, r3
 800550a:	f101 0243 	add.w	r2, r1, #67	; 0x43
 800550e:	d807      	bhi.n	8005520 <_printf_i+0x28>
 8005510:	2f62      	cmp	r7, #98	; 0x62
 8005512:	d80a      	bhi.n	800552a <_printf_i+0x32>
 8005514:	2f00      	cmp	r7, #0
 8005516:	f000 80d8 	beq.w	80056ca <_printf_i+0x1d2>
 800551a:	2f58      	cmp	r7, #88	; 0x58
 800551c:	f000 80a3 	beq.w	8005666 <_printf_i+0x16e>
 8005520:	f104 0542 	add.w	r5, r4, #66	; 0x42
 8005524:	f884 7042 	strb.w	r7, [r4, #66]	; 0x42
 8005528:	e03a      	b.n	80055a0 <_printf_i+0xa8>
 800552a:	f1a7 0363 	sub.w	r3, r7, #99	; 0x63
 800552e:	2b15      	cmp	r3, #21
 8005530:	d8f6      	bhi.n	8005520 <_printf_i+0x28>
 8005532:	a101      	add	r1, pc, #4	; (adr r1, 8005538 <_printf_i+0x40>)
 8005534:	f851 f023 	ldr.w	pc, [r1, r3, lsl #2]
 8005538:	08005591 	.word	0x08005591
 800553c:	080055a5 	.word	0x080055a5
 8005540:	08005521 	.word	0x08005521
 8005544:	08005521 	.word	0x08005521
 8005548:	08005521 	.word	0x08005521
 800554c:	08005521 	.word	0x08005521
 8005550:	080055a5 	.word	0x080055a5
 8005554:	08005521 	.word	0x08005521
 8005558:	08005521 	.word	0x08005521
 800555c:	08005521 	.word	0x08005521
 8005560:	08005521 	.word	0x08005521
 8005564:	080056b1 	.word	0x080056b1
 8005568:	080055d5 	.word	0x080055d5
 800556c:	08005693 	.word	0x08005693
 8005570:	08005521 	.word	0x08005521
 8005574:	08005521 	.word	0x08005521
 8005578:	080056d3 	.word	0x080056d3
 800557c:	08005521 	.word	0x08005521
 8005580:	080055d5 	.word	0x080055d5
 8005584:	08005521 	.word	0x08005521
 8005588:	08005521 	.word	0x08005521
 800558c:	0800569b 	.word	0x0800569b
 8005590:	682b      	ldr	r3, [r5, #0]
 8005592:	1d1a      	adds	r2, r3, #4
 8005594:	681b      	ldr	r3, [r3, #0]
 8005596:	602a      	str	r2, [r5, #0]
 8005598:	f104 0542 	add.w	r5, r4, #66	; 0x42
 800559c:	f884 3042 	strb.w	r3, [r4, #66]	; 0x42
 80055a0:	2301      	movs	r3, #1
 80055a2:	e0a3      	b.n	80056ec <_printf_i+0x1f4>
 80055a4:	6820      	ldr	r0, [r4, #0]
 80055a6:	6829      	ldr	r1, [r5, #0]
 80055a8:	0606      	lsls	r6, r0, #24
 80055aa:	f101 0304 	add.w	r3, r1, #4
 80055ae:	d50a      	bpl.n	80055c6 <_printf_i+0xce>
 80055b0:	680e      	ldr	r6, [r1, #0]
 80055b2:	602b      	str	r3, [r5, #0]
 80055b4:	2e00      	cmp	r6, #0
 80055b6:	da03      	bge.n	80055c0 <_printf_i+0xc8>
 80055b8:	232d      	movs	r3, #45	; 0x2d
 80055ba:	4276      	negs	r6, r6
 80055bc:	f884 3043 	strb.w	r3, [r4, #67]	; 0x43
 80055c0:	485e      	ldr	r0, [pc, #376]	; (800573c <_printf_i+0x244>)
 80055c2:	230a      	movs	r3, #10
 80055c4:	e019      	b.n	80055fa <_printf_i+0x102>
 80055c6:	680e      	ldr	r6, [r1, #0]
 80055c8:	602b      	str	r3, [r5, #0]
 80055ca:	f010 0f40 	tst.w	r0, #64	; 0x40
 80055ce:	bf18      	it	ne
 80055d0:	b236      	sxthne	r6, r6
 80055d2:	e7ef      	b.n	80055b4 <_printf_i+0xbc>
 80055d4:	682b      	ldr	r3, [r5, #0]
 80055d6:	6820      	ldr	r0, [r4, #0]
 80055d8:	1d19      	adds	r1, r3, #4
 80055da:	6029      	str	r1, [r5, #0]
 80055dc:	0601      	lsls	r1, r0, #24
 80055de:	d501      	bpl.n	80055e4 <_printf_i+0xec>
 80055e0:	681e      	ldr	r6, [r3, #0]
 80055e2:	e002      	b.n	80055ea <_printf_i+0xf2>
 80055e4:	0646      	lsls	r6, r0, #25
 80055e6:	d5fb      	bpl.n	80055e0 <_printf_i+0xe8>
 80055e8:	881e      	ldrh	r6, [r3, #0]
 80055ea:	4854      	ldr	r0, [pc, #336]	; (800573c <_printf_i+0x244>)
 80055ec:	2f6f      	cmp	r7, #111	; 0x6f
 80055ee:	bf0c      	ite	eq
 80055f0:	2308      	moveq	r3, #8
 80055f2:	230a      	movne	r3, #10
 80055f4:	2100      	movs	r1, #0
 80055f6:	f884 1043 	strb.w	r1, [r4, #67]	; 0x43
 80055fa:	6865      	ldr	r5, [r4, #4]
 80055fc:	60a5      	str	r5, [r4, #8]
 80055fe:	2d00      	cmp	r5, #0
 8005600:	bfa2      	ittt	ge
 8005602:	6821      	ldrge	r1, [r4, #0]
 8005604:	f021 0104 	bicge.w	r1, r1, #4
 8005608:	6021      	strge	r1, [r4, #0]
 800560a:	b90e      	cbnz	r6, 8005610 <_printf_i+0x118>
 800560c:	2d00      	cmp	r5, #0
 800560e:	d04d      	beq.n	80056ac <_printf_i+0x1b4>
 8005610:	4615      	mov	r5, r2
 8005612:	fbb6 f1f3 	udiv	r1, r6, r3
 8005616:	fb03 6711 	mls	r7, r3, r1, r6
 800561a:	5dc7      	ldrb	r7, [r0, r7]
 800561c:	f805 7d01 	strb.w	r7, [r5, #-1]!
 8005620:	4637      	mov	r7, r6
 8005622:	42bb      	cmp	r3, r7
 8005624:	460e      	mov	r6, r1
 8005626:	d9f4      	bls.n	8005612 <_printf_i+0x11a>
 8005628:	2b08      	cmp	r3, #8
 800562a:	d10b      	bne.n	8005644 <_printf_i+0x14c>
 800562c:	6823      	ldr	r3, [r4, #0]
 800562e:	07de      	lsls	r6, r3, #31
 8005630:	d508      	bpl.n	8005644 <_printf_i+0x14c>
 8005632:	6923      	ldr	r3, [r4, #16]
 8005634:	6861      	ldr	r1, [r4, #4]
 8005636:	4299      	cmp	r1, r3
 8005638:	bfde      	ittt	le
 800563a:	2330      	movle	r3, #48	; 0x30
 800563c:	f805 3c01 	strble.w	r3, [r5, #-1]
 8005640:	f105 35ff 	addle.w	r5, r5, #4294967295
 8005644:	1b52      	subs	r2, r2, r5
 8005646:	6122      	str	r2, [r4, #16]
 8005648:	f8cd a000 	str.w	sl, [sp]
 800564c:	464b      	mov	r3, r9
 800564e:	aa03      	add	r2, sp, #12
 8005650:	4621      	mov	r1, r4
 8005652:	4640      	mov	r0, r8
 8005654:	f7ff fee2 	bl	800541c <_printf_common>
 8005658:	3001      	adds	r0, #1
 800565a:	d14c      	bne.n	80056f6 <_printf_i+0x1fe>
 800565c:	f04f 30ff 	mov.w	r0, #4294967295
 8005660:	b004      	add	sp, #16
 8005662:	e8bd 87f0 	ldmia.w	sp!, {r4, r5, r6, r7, r8, r9, sl, pc}
 8005666:	4835      	ldr	r0, [pc, #212]	; (800573c <_printf_i+0x244>)
 8005668:	f881 7045 	strb.w	r7, [r1, #69]	; 0x45
 800566c:	6829      	ldr	r1, [r5, #0]
 800566e:	6823      	ldr	r3, [r4, #0]
 8005670:	f851 6b04 	ldr.w	r6, [r1], #4
 8005674:	6029      	str	r1, [r5, #0]
 8005676:	061d      	lsls	r5, r3, #24
 8005678:	d514      	bpl.n	80056a4 <_printf_i+0x1ac>
 800567a:	07df      	lsls	r7, r3, #31
 800567c:	bf44      	itt	mi
 800567e:	f043 0320 	orrmi.w	r3, r3, #32
 8005682:	6023      	strmi	r3, [r4, #0]
 8005684:	b91e      	cbnz	r6, 800568e <_printf_i+0x196>
 8005686:	6823      	ldr	r3, [r4, #0]
 8005688:	f023 0320 	bic.w	r3, r3, #32
 800568c:	6023      	str	r3, [r4, #0]
 800568e:	2310      	movs	r3, #16
 8005690:	e7b0      	b.n	80055f4 <_printf_i+0xfc>
 8005692:	6823      	ldr	r3, [r4, #0]
 8005694:	f043 0320 	orr.w	r3, r3, #32
 8005698:	6023      	str	r3, [r4, #0]
 800569a:	2378      	movs	r3, #120	; 0x78
 800569c:	4828      	ldr	r0, [pc, #160]	; (8005740 <_printf_i+0x248>)
 800569e:	f884 3045 	strb.w	r3, [r4, #69]	; 0x45
 80056a2:	e7e3      	b.n	800566c <_printf_i+0x174>
 80056a4:	0659      	lsls	r1, r3, #25
 80056a6:	bf48      	it	mi
 80056a8:	b2b6      	uxthmi	r6, r6
 80056aa:	e7e6      	b.n	800567a <_printf_i+0x182>
 80056ac:	4615      	mov	r5, r2
 80056ae:	e7bb      	b.n	8005628 <_printf_i+0x130>
 80056b0:	682b      	ldr	r3, [r5, #0]
 80056b2:	6826      	ldr	r6, [r4, #0]
 80056b4:	6961      	ldr	r1, [r4, #20]
 80056b6:	1d18      	adds	r0, r3, #4
 80056b8:	6028      	str	r0, [r5, #0]
 80056ba:	0635      	lsls	r5, r6, #24
 80056bc:	681b      	ldr	r3, [r3, #0]
 80056be:	d501      	bpl.n	80056c4 <_printf_i+0x1cc>
 80056c0:	6019      	str	r1, [r3, #0]
 80056c2:	e002      	b.n	80056ca <_printf_i+0x1d2>
 80056c4:	0670      	lsls	r0, r6, #25
 80056c6:	d5fb      	bpl.n	80056c0 <_printf_i+0x1c8>
 80056c8:	8019      	strh	r1, [r3, #0]
 80056ca:	2300      	movs	r3, #0
 80056cc:	6123      	str	r3, [r4, #16]
 80056ce:	4615      	mov	r5, r2
 80056d0:	e7ba      	b.n	8005648 <_printf_i+0x150>
 80056d2:	682b      	ldr	r3, [r5, #0]
 80056d4:	1d1a      	adds	r2, r3, #4
 80056d6:	602a      	str	r2, [r5, #0]
 80056d8:	681d      	ldr	r5, [r3, #0]
 80056da:	6862      	ldr	r2, [r4, #4]
 80056dc:	2100      	movs	r1, #0
 80056de:	4628      	mov	r0, r5
 80056e0:	f7fa fd56 	bl	8000190 <memchr>
 80056e4:	b108      	cbz	r0, 80056ea <_printf_i+0x1f2>
 80056e6:	1b40      	subs	r0, r0, r5
 80056e8:	6060      	str	r0, [r4, #4]
 80056ea:	6863      	ldr	r3, [r4, #4]
 80056ec:	6123      	str	r3, [r4, #16]
 80056ee:	2300      	movs	r3, #0
 80056f0:	f884 3043 	strb.w	r3, [r4, #67]	; 0x43
 80056f4:	e7a8      	b.n	8005648 <_printf_i+0x150>
 80056f6:	6923      	ldr	r3, [r4, #16]
 80056f8:	462a      	mov	r2, r5
 80056fa:	4649      	mov	r1, r9
 80056fc:	4640      	mov	r0, r8
 80056fe:	47d0      	blx	sl
 8005700:	3001      	adds	r0, #1
 8005702:	d0ab      	beq.n	800565c <_printf_i+0x164>
 8005704:	6823      	ldr	r3, [r4, #0]
 8005706:	079b      	lsls	r3, r3, #30
 8005708:	d413      	bmi.n	8005732 <_printf_i+0x23a>
 800570a:	68e0      	ldr	r0, [r4, #12]
 800570c:	9b03      	ldr	r3, [sp, #12]
 800570e:	4298      	cmp	r0, r3
 8005710:	bfb8      	it	lt
 8005712:	4618      	movlt	r0, r3
 8005714:	e7a4      	b.n	8005660 <_printf_i+0x168>
 8005716:	2301      	movs	r3, #1
 8005718:	4632      	mov	r2, r6
 800571a:	4649      	mov	r1, r9
 800571c:	4640      	mov	r0, r8
 800571e:	47d0      	blx	sl
 8005720:	3001      	adds	r0, #1
 8005722:	d09b      	beq.n	800565c <_printf_i+0x164>
 8005724:	3501      	adds	r5, #1
 8005726:	68e3      	ldr	r3, [r4, #12]
 8005728:	9903      	ldr	r1, [sp, #12]
 800572a:	1a5b      	subs	r3, r3, r1
 800572c:	42ab      	cmp	r3, r5
 800572e:	dcf2      	bgt.n	8005716 <_printf_i+0x21e>
 8005730:	e7eb      	b.n	800570a <_printf_i+0x212>
 8005732:	2500      	movs	r5, #0
 8005734:	f104 0619 	add.w	r6, r4, #25
 8005738:	e7f5      	b.n	8005726 <_printf_i+0x22e>
 800573a:	bf00      	nop
 800573c:	08008b51 	.word	0x08008b51
 8005740:	08008b62 	.word	0x08008b62

08005744 <_sbrk_r>:
 8005744:	b538      	push	{r3, r4, r5, lr}
 8005746:	4d06      	ldr	r5, [pc, #24]	; (8005760 <_sbrk_r+0x1c>)
 8005748:	2300      	movs	r3, #0
 800574a:	4604      	mov	r4, r0
 800574c:	4608      	mov	r0, r1
 800574e:	602b      	str	r3, [r5, #0]
 8005750:	f7fb ff94 	bl	800167c <_sbrk>
 8005754:	1c43      	adds	r3, r0, #1
 8005756:	d102      	bne.n	800575e <_sbrk_r+0x1a>
 8005758:	682b      	ldr	r3, [r5, #0]
 800575a:	b103      	cbz	r3, 800575e <_sbrk_r+0x1a>
 800575c:	6023      	str	r3, [r4, #0]
 800575e:	bd38      	pop	{r3, r4, r5, pc}
 8005760:	200009ec 	.word	0x200009ec

08005764 <__malloc_lock>:
 8005764:	4801      	ldr	r0, [pc, #4]	; (800576c <__malloc_lock+0x8>)
 8005766:	f7ff bc67 	b.w	8005038 <__retarget_lock_acquire_recursive>
 800576a:	bf00      	nop
 800576c:	200009e0 	.word	0x200009e0

08005770 <__malloc_unlock>:
 8005770:	4801      	ldr	r0, [pc, #4]	; (8005778 <__malloc_unlock+0x8>)
 8005772:	f7ff bc62 	b.w	800503a <__retarget_lock_release_recursive>
 8005776:	bf00      	nop
 8005778:	200009e0 	.word	0x200009e0

0800577c <_free_r>:
 800577c:	b537      	push	{r0, r1, r2, r4, r5, lr}
 800577e:	2900      	cmp	r1, #0
 8005780:	d044      	beq.n	800580c <_free_r+0x90>
 8005782:	f851 3c04 	ldr.w	r3, [r1, #-4]
 8005786:	9001      	str	r0, [sp, #4]
 8005788:	2b00      	cmp	r3, #0
 800578a:	f1a1 0404 	sub.w	r4, r1, #4
 800578e:	bfb8      	it	lt
 8005790:	18e4      	addlt	r4, r4, r3
 8005792:	f7ff ffe7 	bl	8005764 <__malloc_lock>
 8005796:	4a1e      	ldr	r2, [pc, #120]	; (8005810 <_free_r+0x94>)
 8005798:	9801      	ldr	r0, [sp, #4]
 800579a:	6813      	ldr	r3, [r2, #0]
 800579c:	b933      	cbnz	r3, 80057ac <_free_r+0x30>
 800579e:	6063      	str	r3, [r4, #4]
 80057a0:	6014      	str	r4, [r2, #0]
 80057a2:	b003      	add	sp, #12
 80057a4:	e8bd 4030 	ldmia.w	sp!, {r4, r5, lr}
 80057a8:	f7ff bfe2 	b.w	8005770 <__malloc_unlock>
 80057ac:	42a3      	cmp	r3, r4
 80057ae:	d908      	bls.n	80057c2 <_free_r+0x46>
 80057b0:	6825      	ldr	r5, [r4, #0]
 80057b2:	1961      	adds	r1, r4, r5
 80057b4:	428b      	cmp	r3, r1
 80057b6:	bf01      	itttt	eq
 80057b8:	6819      	ldreq	r1, [r3, #0]
 80057ba:	685b      	ldreq	r3, [r3, #4]
 80057bc:	1949      	addeq	r1, r1, r5
 80057be:	6021      	streq	r1, [r4, #0]
 80057c0:	e7ed      	b.n	800579e <_free_r+0x22>
 80057c2:	461a      	mov	r2, r3
 80057c4:	685b      	ldr	r3, [r3, #4]
 80057c6:	b10b      	cbz	r3, 80057cc <_free_r+0x50>
 80057c8:	42a3      	cmp	r3, r4
 80057ca:	d9fa      	bls.n	80057c2 <_free_r+0x46>
 80057cc:	6811      	ldr	r1, [r2, #0]
 80057ce:	1855      	adds	r5, r2, r1
 80057d0:	42a5      	cmp	r5, r4
 80057d2:	d10b      	bne.n	80057ec <_free_r+0x70>
 80057d4:	6824      	ldr	r4, [r4, #0]
 80057d6:	4421      	add	r1, r4
 80057d8:	1854      	adds	r4, r2, r1
 80057da:	42a3      	cmp	r3, r4
 80057dc:	6011      	str	r1, [r2, #0]
 80057de:	d1e0      	bne.n	80057a2 <_free_r+0x26>
 80057e0:	681c      	ldr	r4, [r3, #0]
 80057e2:	685b      	ldr	r3, [r3, #4]
 80057e4:	6053      	str	r3, [r2, #4]
 80057e6:	4421      	add	r1, r4
 80057e8:	6011      	str	r1, [r2, #0]
 80057ea:	e7da      	b.n	80057a2 <_free_r+0x26>
 80057ec:	d902      	bls.n	80057f4 <_free_r+0x78>
 80057ee:	230c      	movs	r3, #12
 80057f0:	6003      	str	r3, [r0, #0]
 80057f2:	e7d6      	b.n	80057a2 <_free_r+0x26>
 80057f4:	6825      	ldr	r5, [r4, #0]
 80057f6:	1961      	adds	r1, r4, r5
 80057f8:	428b      	cmp	r3, r1
 80057fa:	bf04      	itt	eq
 80057fc:	6819      	ldreq	r1, [r3, #0]
 80057fe:	685b      	ldreq	r3, [r3, #4]
 8005800:	6063      	str	r3, [r4, #4]
 8005802:	bf04      	itt	eq
 8005804:	1949      	addeq	r1, r1, r5
 8005806:	6021      	streq	r1, [r4, #0]
 8005808:	6054      	str	r4, [r2, #4]
 800580a:	e7ca      	b.n	80057a2 <_free_r+0x26>
 800580c:	b003      	add	sp, #12
 800580e:	bd30      	pop	{r4, r5, pc}
 8005810:	200009e4 	.word	0x200009e4

08005814 <_realloc_r>:
 8005814:	e92d 41f0 	stmdb	sp!, {r4, r5, r6, r7, r8, lr}
 8005818:	4680      	mov	r8, r0
 800581a:	4614      	mov	r4, r2
 800581c:	460e      	mov	r6, r1
 800581e:	b921      	cbnz	r1, 800582a <_realloc_r+0x16>
 8005820:	e8bd 41f0 	ldmia.w	sp!, {r4, r5, r6, r7, r8, lr}
 8005824:	4611      	mov	r1, r2
 8005826:	f7ff bc29 	b.w	800507c <_malloc_r>
 800582a:	b92a      	cbnz	r2, 8005838 <_realloc_r+0x24>
 800582c:	f7ff ffa6 	bl	800577c <_free_r>
 8005830:	4625      	mov	r5, r4
 8005832:	4628      	mov	r0, r5
 8005834:	e8bd 81f0 	ldmia.w	sp!, {r4, r5, r6, r7, r8, pc}
 8005838:	f000 f81b 	bl	8005872 <_malloc_usable_size_r>
 800583c:	4284      	cmp	r4, r0
 800583e:	4607      	mov	r7, r0
 8005840:	d802      	bhi.n	8005848 <_realloc_r+0x34>
 8005842:	ebb4 0f50 	cmp.w	r4, r0, lsr #1
 8005846:	d812      	bhi.n	800586e <_realloc_r+0x5a>
 8005848:	4621      	mov	r1, r4
 800584a:	4640      	mov	r0, r8
 800584c:	f7ff fc16 	bl	800507c <_malloc_r>
 8005850:	4605      	mov	r5, r0
 8005852:	2800      	cmp	r0, #0
 8005854:	d0ed      	beq.n	8005832 <_realloc_r+0x1e>
 8005856:	42bc      	cmp	r4, r7
 8005858:	4622      	mov	r2, r4
 800585a:	4631      	mov	r1, r6
 800585c:	bf28      	it	cs
 800585e:	463a      	movcs	r2, r7
 8005860:	f7ff fb92 	bl	8004f88 <memcpy>
 8005864:	4631      	mov	r1, r6
 8005866:	4640      	mov	r0, r8
 8005868:	f7ff ff88 	bl	800577c <_free_r>
 800586c:	e7e1      	b.n	8005832 <_realloc_r+0x1e>
 800586e:	4635      	mov	r5, r6
 8005870:	e7df      	b.n	8005832 <_realloc_r+0x1e>

08005872 <_malloc_usable_size_r>:
 8005872:	f851 3c04 	ldr.w	r3, [r1, #-4]
 8005876:	1f18      	subs	r0, r3, #4
 8005878:	2b00      	cmp	r3, #0
 800587a:	bfbc      	itt	lt
 800587c:	580b      	ldrlt	r3, [r1, r0]
 800587e:	18c0      	addlt	r0, r0, r3
 8005880:	4770      	bx	lr
	...

08005884 <_init>:
 8005884:	b5f8      	push	{r3, r4, r5, r6, r7, lr}
 8005886:	bf00      	nop
 8005888:	bcf8      	pop	{r3, r4, r5, r6, r7}
 800588a:	bc08      	pop	{r3}
 800588c:	469e      	mov	lr, r3
 800588e:	4770      	bx	lr

08005890 <_fini>:
 8005890:	b5f8      	push	{r3, r4, r5, r6, r7, lr}
 8005892:	bf00      	nop
 8005894:	bcf8      	pop	{r3, r4, r5, r6, r7}
 8005896:	bc08      	pop	{r3}
 8005898:	469e      	mov	lr, r3
 800589a:	4770      	bx	lr
